
main.elf:     file format elf32-littlearm


Disassembly of section .text:

00000000 <__vectors>:
   0:	00 40 08 20 01 09 00 00 00 00 00 00 00 00 00 00     .@. ............
	...

00000040 <__externalISR>:
	...

000000b8 <_ZN5hwlib7ostream7reverse10add_prefixERKS0_.part.0>:
  b8:	688a      	ldr	r2, [r1, #8]
  ba:	2a0a      	cmp	r2, #10
  bc:	d01a      	beq.n	f4 <_ZN5hwlib7ostream7reverse10add_prefixERKS0_.part.0+0x3c>
  be:	6c83      	ldr	r3, [r0, #72]	; 0x48
  c0:	d807      	bhi.n	d2 <_ZN5hwlib7ostream7reverse10add_prefixERKS0_.part.0+0x1a>
  c2:	2a02      	cmp	r2, #2
  c4:	d00b      	beq.n	de <_ZN5hwlib7ostream7reverse10add_prefixERKS0_.part.0+0x26>
  c6:	2a08      	cmp	r2, #8
  c8:	d015      	beq.n	f6 <_ZN5hwlib7ostream7reverse10add_prefixERKS0_.part.0+0x3e>
  ca:	1e5a      	subs	r2, r3, #1
  cc:	6482      	str	r2, [r0, #72]	; 0x48
  ce:	223f      	movs	r2, #63	; 0x3f
  d0:	e008      	b.n	e4 <_ZN5hwlib7ostream7reverse10add_prefixERKS0_.part.0+0x2c>
  d2:	2a10      	cmp	r2, #16
  d4:	d1f9      	bne.n	ca <_ZN5hwlib7ostream7reverse10add_prefixERKS0_.part.0+0x12>
  d6:	1e5a      	subs	r2, r3, #1
  d8:	6482      	str	r2, [r0, #72]	; 0x48
  da:	2278      	movs	r2, #120	; 0x78
  dc:	e002      	b.n	e4 <_ZN5hwlib7ostream7reverse10add_prefixERKS0_.part.0+0x2c>
  de:	1e5a      	subs	r2, r3, #1
  e0:	6482      	str	r2, [r0, #72]	; 0x48
  e2:	2262      	movs	r2, #98	; 0x62
  e4:	f803 2c01 	strb.w	r2, [r3, #-1]
  e8:	6c83      	ldr	r3, [r0, #72]	; 0x48
  ea:	1e5a      	subs	r2, r3, #1
  ec:	6482      	str	r2, [r0, #72]	; 0x48
  ee:	2230      	movs	r2, #48	; 0x30
  f0:	f803 2c01 	strb.w	r2, [r3, #-1]
  f4:	4770      	bx	lr
  f6:	1e5a      	subs	r2, r3, #1
  f8:	6482      	str	r2, [r0, #72]	; 0x48
  fa:	226f      	movs	r2, #111	; 0x6f
  fc:	e7f2      	b.n	e4 <_ZN5hwlib7ostream7reverse10add_prefixERKS0_.part.0+0x2c>

000000fe <_ZN5hwlib7ostreamlsEc>:
  fe:	b510      	push	{r4, lr}
 100:	4604      	mov	r4, r0
 102:	6803      	ldr	r3, [r0, #0]
 104:	681b      	ldr	r3, [r3, #0]
 106:	4798      	blx	r3
 108:	4620      	mov	r0, r4
 10a:	bd10      	pop	{r4, pc}

0000010c <_ZN5hwliblsERNS_7ostreamEPKc>:
 10c:	7b83      	ldrb	r3, [r0, #14]
 10e:	b570      	push	{r4, r5, r6, lr}
 110:	4604      	mov	r4, r0
 112:	460e      	mov	r6, r1
 114:	b93b      	cbnz	r3, 126 <_ZN5hwliblsERNS_7ostreamEPKc+0x1a>
 116:	1e75      	subs	r5, r6, #1
 118:	f815 1f01 	ldrb.w	r1, [r5, #1]!
 11c:	b191      	cbz	r1, 144 <_ZN5hwliblsERNS_7ostreamEPKc+0x38>
 11e:	4620      	mov	r0, r4
 120:	f7ff ffed 	bl	fe <_ZN5hwlib7ostreamlsEc>
 124:	e7f8      	b.n	118 <_ZN5hwliblsERNS_7ostreamEPKc+0xc>
 126:	2300      	movs	r3, #0
 128:	6845      	ldr	r5, [r0, #4]
 12a:	5cf2      	ldrb	r2, [r6, r3]
 12c:	b10a      	cbz	r2, 132 <_ZN5hwliblsERNS_7ostreamEPKc+0x26>
 12e:	3301      	adds	r3, #1
 130:	e7fb      	b.n	12a <_ZN5hwliblsERNS_7ostreamEPKc+0x1e>
 132:	1aed      	subs	r5, r5, r3
 134:	2d00      	cmp	r5, #0
 136:	ddee      	ble.n	116 <_ZN5hwliblsERNS_7ostreamEPKc+0xa>
 138:	4620      	mov	r0, r4
 13a:	7b21      	ldrb	r1, [r4, #12]
 13c:	f7ff ffdf 	bl	fe <_ZN5hwlib7ostreamlsEc>
 140:	3d01      	subs	r5, #1
 142:	e7f7      	b.n	134 <_ZN5hwliblsERNS_7ostreamEPKc+0x28>
 144:	7ba3      	ldrb	r3, [r4, #14]
 146:	b96b      	cbnz	r3, 164 <_ZN5hwliblsERNS_7ostreamEPKc+0x58>
 148:	6865      	ldr	r5, [r4, #4]
 14a:	5cf2      	ldrb	r2, [r6, r3]
 14c:	b10a      	cbz	r2, 152 <_ZN5hwliblsERNS_7ostreamEPKc+0x46>
 14e:	3301      	adds	r3, #1
 150:	e7fb      	b.n	14a <_ZN5hwliblsERNS_7ostreamEPKc+0x3e>
 152:	1aed      	subs	r5, r5, r3
 154:	2d00      	cmp	r5, #0
 156:	dd05      	ble.n	164 <_ZN5hwliblsERNS_7ostreamEPKc+0x58>
 158:	4620      	mov	r0, r4
 15a:	7b21      	ldrb	r1, [r4, #12]
 15c:	f7ff ffcf 	bl	fe <_ZN5hwlib7ostreamlsEc>
 160:	3d01      	subs	r5, #1
 162:	e7f7      	b.n	154 <_ZN5hwliblsERNS_7ostreamEPKc+0x48>
 164:	2300      	movs	r3, #0
 166:	4620      	mov	r0, r4
 168:	6063      	str	r3, [r4, #4]
 16a:	bd70      	pop	{r4, r5, r6, pc}

0000016c <_ZN5hwliblsERNS_7ostreamEi>:
 16c:	2300      	movs	r3, #0
 16e:	b570      	push	{r4, r5, r6, lr}
 170:	b094      	sub	sp, #80	; 0x50
 172:	4604      	mov	r4, r0
 174:	460d      	mov	r5, r1
 176:	f88d 3049 	strb.w	r3, [sp, #73]	; 0x49
 17a:	b301      	cbz	r1, 1be <_ZN5hwliblsERNS_7ostreamEi+0x52>
 17c:	f10d 0349 	add.w	r3, sp, #73	; 0x49
 180:	ea81 72e1 	eor.w	r2, r1, r1, asr #31
 184:	9313      	str	r3, [sp, #76]	; 0x4c
 186:	eba2 72e1 	sub.w	r2, r2, r1, asr #31
 18a:	68a1      	ldr	r1, [r4, #8]
 18c:	4610      	mov	r0, r2
 18e:	fbb2 f3f1 	udiv	r3, r2, r1
 192:	fb01 2313 	mls	r3, r1, r3, r2
 196:	7b61      	ldrb	r1, [r4, #13]
 198:	b2db      	uxtb	r3, r3
 19a:	2b09      	cmp	r3, #9
 19c:	bf84      	itt	hi
 19e:	390a      	subhi	r1, #10
 1a0:	185b      	addhi	r3, r3, r1
 1a2:	9913      	ldr	r1, [sp, #76]	; 0x4c
 1a4:	bf98      	it	ls
 1a6:	3330      	addls	r3, #48	; 0x30
 1a8:	b2db      	uxtb	r3, r3
 1aa:	1e4e      	subs	r6, r1, #1
 1ac:	9613      	str	r6, [sp, #76]	; 0x4c
 1ae:	f801 3c01 	strb.w	r3, [r1, #-1]
 1b2:	68a3      	ldr	r3, [r4, #8]
 1b4:	4298      	cmp	r0, r3
 1b6:	fbb2 f2f3 	udiv	r2, r2, r3
 1ba:	d2e6      	bcs.n	18a <_ZN5hwliblsERNS_7ostreamEi+0x1e>
 1bc:	e004      	b.n	1c8 <_ZN5hwliblsERNS_7ostreamEi+0x5c>
 1be:	ab12      	add	r3, sp, #72	; 0x48
 1c0:	9313      	str	r3, [sp, #76]	; 0x4c
 1c2:	2330      	movs	r3, #48	; 0x30
 1c4:	f88d 3048 	strb.w	r3, [sp, #72]	; 0x48
 1c8:	7c63      	ldrb	r3, [r4, #17]
 1ca:	b11b      	cbz	r3, 1d4 <_ZN5hwliblsERNS_7ostreamEi+0x68>
 1cc:	4621      	mov	r1, r4
 1ce:	a801      	add	r0, sp, #4
 1d0:	f7ff ff72 	bl	b8 <_ZN5hwlib7ostream7reverse10add_prefixERKS0_.part.0>
 1d4:	2d00      	cmp	r5, #0
 1d6:	9b13      	ldr	r3, [sp, #76]	; 0x4c
 1d8:	da0b      	bge.n	1f2 <_ZN5hwliblsERNS_7ostreamEi+0x86>
 1da:	1e5a      	subs	r2, r3, #1
 1dc:	9213      	str	r2, [sp, #76]	; 0x4c
 1de:	222d      	movs	r2, #45	; 0x2d
 1e0:	f803 2c01 	strb.w	r2, [r3, #-1]
 1e4:	4620      	mov	r0, r4
 1e6:	9913      	ldr	r1, [sp, #76]	; 0x4c
 1e8:	f7ff ff90 	bl	10c <_ZN5hwliblsERNS_7ostreamEPKc>
 1ec:	4620      	mov	r0, r4
 1ee:	b014      	add	sp, #80	; 0x50
 1f0:	bd70      	pop	{r4, r5, r6, pc}
 1f2:	7be2      	ldrb	r2, [r4, #15]
 1f4:	2a00      	cmp	r2, #0
 1f6:	d0f5      	beq.n	1e4 <_ZN5hwliblsERNS_7ostreamEi+0x78>
 1f8:	1e5a      	subs	r2, r3, #1
 1fa:	9213      	str	r2, [sp, #76]	; 0x4c
 1fc:	222b      	movs	r2, #43	; 0x2b
 1fe:	e7ef      	b.n	1e0 <_ZN5hwliblsERNS_7ostreamEi+0x74>

00000200 <_ZN5hwliblsERNS_7ostreamEx>:
 200:	e92d 41f0 	stmdb	sp!, {r4, r5, r6, r7, r8, lr}
 204:	461f      	mov	r7, r3
 206:	4616      	mov	r6, r2
 208:	2300      	movs	r3, #0
 20a:	b094      	sub	sp, #80	; 0x50
 20c:	f88d 3049 	strb.w	r3, [sp, #73]	; 0x49
 210:	ea56 0307 	orrs.w	r3, r6, r7
 214:	4680      	mov	r8, r0
 216:	d02e      	beq.n	276 <_ZN5hwliblsERNS_7ostreamEx+0x76>
 218:	f10d 0349 	add.w	r3, sp, #73	; 0x49
 21c:	2a00      	cmp	r2, #0
 21e:	9313      	str	r3, [sp, #76]	; 0x4c
 220:	f177 0300 	sbcs.w	r3, r7, #0
 224:	4614      	mov	r4, r2
 226:	463d      	mov	r5, r7
 228:	da02      	bge.n	230 <_ZN5hwliblsERNS_7ostreamEx+0x30>
 22a:	4254      	negs	r4, r2
 22c:	eb67 0547 	sbc.w	r5, r7, r7, lsl #1
 230:	4620      	mov	r0, r4
 232:	4629      	mov	r1, r5
 234:	f8d8 2008 	ldr.w	r2, [r8, #8]
 238:	2300      	movs	r3, #0
 23a:	f000 fb81 	bl	940 <__aeabi_ldivmod>
 23e:	f898 300d 	ldrb.w	r3, [r8, #13]
 242:	b2d2      	uxtb	r2, r2
 244:	2a09      	cmp	r2, #9
 246:	bf84      	itt	hi
 248:	3b0a      	subhi	r3, #10
 24a:	18d2      	addhi	r2, r2, r3
 24c:	9b13      	ldr	r3, [sp, #76]	; 0x4c
 24e:	bf98      	it	ls
 250:	3230      	addls	r2, #48	; 0x30
 252:	1e59      	subs	r1, r3, #1
 254:	b2d2      	uxtb	r2, r2
 256:	9113      	str	r1, [sp, #76]	; 0x4c
 258:	f803 2c01 	strb.w	r2, [r3, #-1]
 25c:	4620      	mov	r0, r4
 25e:	2300      	movs	r3, #0
 260:	4629      	mov	r1, r5
 262:	f8d8 2008 	ldr.w	r2, [r8, #8]
 266:	f000 fb6b 	bl	940 <__aeabi_ldivmod>
 26a:	4604      	mov	r4, r0
 26c:	460d      	mov	r5, r1
 26e:	ea54 0305 	orrs.w	r3, r4, r5
 272:	d1dd      	bne.n	230 <_ZN5hwliblsERNS_7ostreamEx+0x30>
 274:	e004      	b.n	280 <_ZN5hwliblsERNS_7ostreamEx+0x80>
 276:	ab12      	add	r3, sp, #72	; 0x48
 278:	9313      	str	r3, [sp, #76]	; 0x4c
 27a:	2330      	movs	r3, #48	; 0x30
 27c:	f88d 3048 	strb.w	r3, [sp, #72]	; 0x48
 280:	f898 3011 	ldrb.w	r3, [r8, #17]
 284:	b11b      	cbz	r3, 28e <_ZN5hwliblsERNS_7ostreamEx+0x8e>
 286:	4641      	mov	r1, r8
 288:	a801      	add	r0, sp, #4
 28a:	f7ff ff15 	bl	b8 <_ZN5hwlib7ostream7reverse10add_prefixERKS0_.part.0>
 28e:	2e00      	cmp	r6, #0
 290:	f177 0200 	sbcs.w	r2, r7, #0
 294:	9b13      	ldr	r3, [sp, #76]	; 0x4c
 296:	da0c      	bge.n	2b2 <_ZN5hwliblsERNS_7ostreamEx+0xb2>
 298:	1e5a      	subs	r2, r3, #1
 29a:	9213      	str	r2, [sp, #76]	; 0x4c
 29c:	222d      	movs	r2, #45	; 0x2d
 29e:	f803 2c01 	strb.w	r2, [r3, #-1]
 2a2:	4640      	mov	r0, r8
 2a4:	9913      	ldr	r1, [sp, #76]	; 0x4c
 2a6:	f7ff ff31 	bl	10c <_ZN5hwliblsERNS_7ostreamEPKc>
 2aa:	4640      	mov	r0, r8
 2ac:	b014      	add	sp, #80	; 0x50
 2ae:	e8bd 81f0 	ldmia.w	sp!, {r4, r5, r6, r7, r8, pc}
 2b2:	f898 200f 	ldrb.w	r2, [r8, #15]
 2b6:	2a00      	cmp	r2, #0
 2b8:	d0f3      	beq.n	2a2 <_ZN5hwliblsERNS_7ostreamEx+0xa2>
 2ba:	1e5a      	subs	r2, r3, #1
 2bc:	9213      	str	r2, [sp, #76]	; 0x4c
 2be:	222b      	movs	r2, #43	; 0x2b
 2c0:	e7ed      	b.n	29e <_ZN5hwliblsERNS_7ostreamEx+0x9e>
	...

000002c4 <_ZN6sam3xa10SystemInitEv>:
 2c4:	f44f 6380 	mov.w	r3, #1024	; 0x400
 2c8:	4a16      	ldr	r2, [pc, #88]	; (324 <_ZN6sam3xa10SystemInitEv+0x60>)
 2ca:	6013      	str	r3, [r2, #0]
 2cc:	f8c2 3200 	str.w	r3, [r2, #512]	; 0x200
 2d0:	4b15      	ldr	r3, [pc, #84]	; (328 <_ZN6sam3xa10SystemInitEv+0x64>)
 2d2:	6a1a      	ldr	r2, [r3, #32]
 2d4:	01d2      	lsls	r2, r2, #7
 2d6:	d404      	bmi.n	2e2 <_ZN6sam3xa10SystemInitEv+0x1e>
 2d8:	4a14      	ldr	r2, [pc, #80]	; (32c <_ZN6sam3xa10SystemInitEv+0x68>)
 2da:	621a      	str	r2, [r3, #32]
 2dc:	6e9a      	ldr	r2, [r3, #104]	; 0x68
 2de:	07d0      	lsls	r0, r2, #31
 2e0:	d5fc      	bpl.n	2dc <_ZN6sam3xa10SystemInitEv+0x18>
 2e2:	4a13      	ldr	r2, [pc, #76]	; (330 <_ZN6sam3xa10SystemInitEv+0x6c>)
 2e4:	621a      	str	r2, [r3, #32]
 2e6:	6e9a      	ldr	r2, [r3, #104]	; 0x68
 2e8:	03d1      	lsls	r1, r2, #15
 2ea:	d5fc      	bpl.n	2e6 <_ZN6sam3xa10SystemInitEv+0x22>
 2ec:	6b1a      	ldr	r2, [r3, #48]	; 0x30
 2ee:	f022 0203 	bic.w	r2, r2, #3
 2f2:	f042 0201 	orr.w	r2, r2, #1
 2f6:	631a      	str	r2, [r3, #48]	; 0x30
 2f8:	6e9a      	ldr	r2, [r3, #104]	; 0x68
 2fa:	0712      	lsls	r2, r2, #28
 2fc:	d5fc      	bpl.n	2f8 <_ZN6sam3xa10SystemInitEv+0x34>
 2fe:	4a0d      	ldr	r2, [pc, #52]	; (334 <_ZN6sam3xa10SystemInitEv+0x70>)
 300:	629a      	str	r2, [r3, #40]	; 0x28
 302:	6e9a      	ldr	r2, [r3, #104]	; 0x68
 304:	0790      	lsls	r0, r2, #30
 306:	d5fc      	bpl.n	302 <_ZN6sam3xa10SystemInitEv+0x3e>
 308:	2211      	movs	r2, #17
 30a:	631a      	str	r2, [r3, #48]	; 0x30
 30c:	6e9a      	ldr	r2, [r3, #104]	; 0x68
 30e:	0711      	lsls	r1, r2, #28
 310:	d5fc      	bpl.n	30c <_ZN6sam3xa10SystemInitEv+0x48>
 312:	2212      	movs	r2, #18
 314:	631a      	str	r2, [r3, #48]	; 0x30
 316:	6e9a      	ldr	r2, [r3, #104]	; 0x68
 318:	0712      	lsls	r2, r2, #28
 31a:	d5fc      	bpl.n	316 <_ZN6sam3xa10SystemInitEv+0x52>
 31c:	4b06      	ldr	r3, [pc, #24]	; (338 <_ZN6sam3xa10SystemInitEv+0x74>)
 31e:	4a07      	ldr	r2, [pc, #28]	; (33c <_ZN6sam3xa10SystemInitEv+0x78>)
 320:	601a      	str	r2, [r3, #0]
 322:	4770      	bx	lr
 324:	400e0a00 	.word	0x400e0a00
 328:	400e0600 	.word	0x400e0600
 32c:	00370809 	.word	0x00370809
 330:	01370809 	.word	0x01370809
 334:	200d3f01 	.word	0x200d3f01
 338:	20084098 	.word	0x20084098
 33c:	0501bd00 	.word	0x0501bd00

00000340 <_ZN3due8pin_infoENS_4pinsE>:
 340:	2851      	cmp	r0, #81	; 0x51
 342:	b508      	push	{r3, lr}
 344:	d903      	bls.n	34e <_ZN3due8pin_infoENS_4pinsE+0xe>
 346:	21ba      	movs	r1, #186	; 0xba
 348:	4803      	ldr	r0, [pc, #12]	; (358 <_ZN3due8pin_infoENS_4pinsE+0x18>)
 34a:	f000 f9fd 	bl	748 <_ZN5hwlib5panicEPKcj>
 34e:	4b03      	ldr	r3, [pc, #12]	; (35c <_ZN3due8pin_infoENS_4pinsE+0x1c>)
 350:	eb03 0040 	add.w	r0, r3, r0, lsl #1
 354:	bd08      	pop	{r3, pc}
 356:	bf00      	nop
 358:	00000cd8 	.word	0x00000cd8
 35c:	00000d11 	.word	0x00000d11

00000360 <_ZN3due14port_registersEm>:
 360:	f44f 4200 	mov.w	r2, #32768	; 0x8000
 364:	b508      	push	{r3, lr}
 366:	4b0a      	ldr	r3, [pc, #40]	; (390 <_ZN3due14port_registersEm+0x30>)
 368:	2803      	cmp	r0, #3
 36a:	605a      	str	r2, [r3, #4]
 36c:	f44f 32fc 	mov.w	r2, #129024	; 0x1f800
 370:	f5a3 53a2 	sub.w	r3, r3, #5184	; 0x1440
 374:	f1a3 0310 	sub.w	r3, r3, #16
 378:	611a      	str	r2, [r3, #16]
 37a:	d804      	bhi.n	386 <_ZN3due14port_registersEm+0x26>
 37c:	f503 6300 	add.w	r3, r3, #2048	; 0x800
 380:	eb03 2040 	add.w	r0, r3, r0, lsl #9
 384:	bd08      	pop	{r3, pc}
 386:	f44f 7191 	mov.w	r1, #290	; 0x122
 38a:	4802      	ldr	r0, [pc, #8]	; (394 <_ZN3due14port_registersEm+0x34>)
 38c:	f000 f9dc 	bl	748 <_ZN5hwlib5panicEPKcj>
 390:	400e1a50 	.word	0x400e1a50
 394:	00000cd8 	.word	0x00000cd8

00000398 <_ZN3due12ticks_per_usEv>:
 398:	2054      	movs	r0, #84	; 0x54
 39a:	2100      	movs	r1, #0
 39c:	4770      	bx	lr
	...

000003a0 <_ZN3due9now_ticksEv>:
 3a0:	b538      	push	{r3, r4, r5, lr}
 3a2:	4d18      	ldr	r5, [pc, #96]	; (404 <_ZN3due9now_ticksEv+0x64>)
 3a4:	782c      	ldrb	r4, [r5, #0]
 3a6:	b9ac      	cbnz	r4, 3d4 <_ZN3due9now_ticksEv+0x34>
 3a8:	f44f 4200 	mov.w	r2, #32768	; 0x8000
 3ac:	4b16      	ldr	r3, [pc, #88]	; (408 <_ZN3due9now_ticksEv+0x68>)
 3ae:	605a      	str	r2, [r3, #4]
 3b0:	f7ff ff88 	bl	2c4 <_ZN6sam3xa10SystemInitEv>
 3b4:	f44f 6380 	mov.w	r3, #1024	; 0x400
 3b8:	4a14      	ldr	r2, [pc, #80]	; (40c <_ZN3due9now_ticksEv+0x6c>)
 3ba:	6013      	str	r3, [r2, #0]
 3bc:	f8c2 3200 	str.w	r3, [r2, #512]	; 0x200
 3c0:	f06f 427f 	mvn.w	r2, #4278190080	; 0xff000000
 3c4:	4b12      	ldr	r3, [pc, #72]	; (410 <_ZN3due9now_ticksEv+0x70>)
 3c6:	601c      	str	r4, [r3, #0]
 3c8:	605a      	str	r2, [r3, #4]
 3ca:	2205      	movs	r2, #5
 3cc:	609c      	str	r4, [r3, #8]
 3ce:	601a      	str	r2, [r3, #0]
 3d0:	2301      	movs	r3, #1
 3d2:	702b      	strb	r3, [r5, #0]
 3d4:	4b0e      	ldr	r3, [pc, #56]	; (410 <_ZN3due9now_ticksEv+0x70>)
 3d6:	480f      	ldr	r0, [pc, #60]	; (414 <_ZN3due9now_ticksEv+0x74>)
 3d8:	689b      	ldr	r3, [r3, #8]
 3da:	6801      	ldr	r1, [r0, #0]
 3dc:	43db      	mvns	r3, r3
 3de:	f023 437f 	bic.w	r3, r3, #4278190080	; 0xff000000
 3e2:	4299      	cmp	r1, r3
 3e4:	4a0c      	ldr	r2, [pc, #48]	; (418 <_ZN3due9now_ticksEv+0x78>)
 3e6:	d907      	bls.n	3f8 <_ZN3due9now_ticksEv+0x58>
 3e8:	e9d2 1400 	ldrd	r1, r4, [r2]
 3ec:	f111 7180 	adds.w	r1, r1, #16777216	; 0x1000000
 3f0:	f144 0400 	adc.w	r4, r4, #0
 3f4:	e9c2 1400 	strd	r1, r4, [r2]
 3f8:	6003      	str	r3, [r0, #0]
 3fa:	6810      	ldr	r0, [r2, #0]
 3fc:	6851      	ldr	r1, [r2, #4]
 3fe:	4318      	orrs	r0, r3
 400:	bd38      	pop	{r3, r4, r5, pc}
 402:	bf00      	nop
 404:	2008400c 	.word	0x2008400c
 408:	400e1a50 	.word	0x400e1a50
 40c:	400e0a00 	.word	0x400e0a00
 410:	e000e010 	.word	0xe000e010
 414:	20084008 	.word	0x20084008
 418:	20084000 	.word	0x20084000

0000041c <_ZN5hwlib9uart_putcEc>:
 41c:	f000 b9e4 	b.w	7e8 <_ZN3due9uart_putcEc>

00000420 <_ZN7MAX7219C1ERN3due7pin_outES2_S2_>:
 420:	6083      	str	r3, [r0, #8]
 422:	2300      	movs	r3, #0
 424:	b510      	push	{r4, lr}
 426:	e9c0 1200 	strd	r1, r2, [r0]
 42a:	60c3      	str	r3, [r0, #12]
 42c:	bd10      	pop	{r4, pc}
	...

00000430 <_ZN7MAX721910find_asciiEc>:
 430:	2300      	movs	r3, #0
 432:	4a05      	ldr	r2, [pc, #20]	; (448 <_ZN7MAX721910find_asciiEc+0x18>)
 434:	f812 0013 	ldrb.w	r0, [r2, r3, lsl #1]
 438:	4288      	cmp	r0, r1
 43a:	d103      	bne.n	444 <_ZN7MAX721910find_asciiEc+0x14>
 43c:	eb02 0343 	add.w	r3, r2, r3, lsl #1
 440:	7858      	ldrb	r0, [r3, #1]
 442:	4770      	bx	lr
 444:	3301      	adds	r3, #1
 446:	e7f5      	b.n	434 <_ZN7MAX721910find_asciiEc+0x4>
 448:	2008402c 	.word	0x2008402c

0000044c <_ZN7MAX72195writeEt>:
 44c:	b5f7      	push	{r0, r1, r2, r4, r5, r6, r7, lr}
 44e:	4604      	mov	r4, r0
 450:	6840      	ldr	r0, [r0, #4]
 452:	f8ad 1006 	strh.w	r1, [sp, #6]
 456:	6803      	ldr	r3, [r0, #0]
 458:	2100      	movs	r1, #0
 45a:	681b      	ldr	r3, [r3, #0]
 45c:	4798      	blx	r3
 45e:	2019      	movs	r0, #25
 460:	f000 f95e 	bl	720 <_ZN5hwlib7wait_nsEi>
 464:	2510      	movs	r5, #16
 466:	4f3c      	ldr	r7, [pc, #240]	; (558 <_ZN7MAX72195writeEt+0x10c>)
 468:	4e3c      	ldr	r6, [pc, #240]	; (55c <_ZN7MAX72195writeEt+0x110>)
 46a:	f8bd 3006 	ldrh.w	r3, [sp, #6]
 46e:	0419      	lsls	r1, r3, #16
 470:	d421      	bmi.n	4b6 <_ZN7MAX72195writeEt+0x6a>
 472:	6820      	ldr	r0, [r4, #0]
 474:	2100      	movs	r1, #0
 476:	6803      	ldr	r3, [r0, #0]
 478:	3d01      	subs	r5, #1
 47a:	681b      	ldr	r3, [r3, #0]
 47c:	4798      	blx	r3
 47e:	68a0      	ldr	r0, [r4, #8]
 480:	2101      	movs	r1, #1
 482:	6803      	ldr	r3, [r0, #0]
 484:	681b      	ldr	r3, [r3, #0]
 486:	4798      	blx	r3
 488:	2032      	movs	r0, #50	; 0x32
 48a:	f000 f949 	bl	720 <_ZN5hwlib7wait_nsEi>
 48e:	68a0      	ldr	r0, [r4, #8]
 490:	2100      	movs	r1, #0
 492:	6803      	ldr	r3, [r0, #0]
 494:	681b      	ldr	r3, [r3, #0]
 496:	4798      	blx	r3
 498:	f8bd 3006 	ldrh.w	r3, [sp, #6]
 49c:	4639      	mov	r1, r7
 49e:	b29b      	uxth	r3, r3
 4a0:	005b      	lsls	r3, r3, #1
 4a2:	b29b      	uxth	r3, r3
 4a4:	4630      	mov	r0, r6
 4a6:	f8ad 3006 	strh.w	r3, [sp, #6]
 4aa:	f7ff fe2f 	bl	10c <_ZN5hwliblsERNS_7ostreamEPKc>
 4ae:	210a      	movs	r1, #10
 4b0:	f7ff fe25 	bl	fe <_ZN5hwlib7ostreamlsEc>
 4b4:	e7d9      	b.n	46a <_ZN7MAX72195writeEt+0x1e>
 4b6:	2600      	movs	r6, #0
 4b8:	4f28      	ldr	r7, [pc, #160]	; (55c <_ZN7MAX72195writeEt+0x110>)
 4ba:	42b5      	cmp	r5, r6
 4bc:	d040      	beq.n	540 <_ZN7MAX72195writeEt+0xf4>
 4be:	6820      	ldr	r0, [r4, #0]
 4c0:	f8bd 2006 	ldrh.w	r2, [sp, #6]
 4c4:	6803      	ldr	r3, [r0, #0]
 4c6:	0412      	lsls	r2, r2, #16
 4c8:	681b      	ldr	r3, [r3, #0]
 4ca:	d529      	bpl.n	520 <_ZN7MAX72195writeEt+0xd4>
 4cc:	2101      	movs	r1, #1
 4ce:	4798      	blx	r3
 4d0:	68a0      	ldr	r0, [r4, #8]
 4d2:	2101      	movs	r1, #1
 4d4:	6803      	ldr	r3, [r0, #0]
 4d6:	681b      	ldr	r3, [r3, #0]
 4d8:	4798      	blx	r3
 4da:	2032      	movs	r0, #50	; 0x32
 4dc:	f000 f920 	bl	720 <_ZN5hwlib7wait_nsEi>
 4e0:	6820      	ldr	r0, [r4, #0]
 4e2:	2100      	movs	r1, #0
 4e4:	6803      	ldr	r3, [r0, #0]
 4e6:	681b      	ldr	r3, [r3, #0]
 4e8:	4798      	blx	r3
 4ea:	68a0      	ldr	r0, [r4, #8]
 4ec:	2100      	movs	r1, #0
 4ee:	6803      	ldr	r3, [r0, #0]
 4f0:	681b      	ldr	r3, [r3, #0]
 4f2:	4798      	blx	r3
 4f4:	2032      	movs	r0, #50	; 0x32
 4f6:	f000 f913 	bl	720 <_ZN5hwlib7wait_nsEi>
 4fa:	f8bd 2006 	ldrh.w	r2, [sp, #6]
 4fe:	2300      	movs	r3, #0
 500:	b292      	uxth	r2, r2
 502:	4638      	mov	r0, r7
 504:	f7ff fe7c 	bl	200 <_ZN5hwliblsERNS_7ostreamEx>
 508:	210a      	movs	r1, #10
 50a:	f7ff fdf8 	bl	fe <_ZN5hwlib7ostreamlsEc>
 50e:	f8bd 3006 	ldrh.w	r3, [sp, #6]
 512:	3601      	adds	r6, #1
 514:	b29b      	uxth	r3, r3
 516:	005b      	lsls	r3, r3, #1
 518:	b29b      	uxth	r3, r3
 51a:	f8ad 3006 	strh.w	r3, [sp, #6]
 51e:	e7cc      	b.n	4ba <_ZN7MAX72195writeEt+0x6e>
 520:	2100      	movs	r1, #0
 522:	4798      	blx	r3
 524:	68a0      	ldr	r0, [r4, #8]
 526:	2101      	movs	r1, #1
 528:	6803      	ldr	r3, [r0, #0]
 52a:	681b      	ldr	r3, [r3, #0]
 52c:	4798      	blx	r3
 52e:	2032      	movs	r0, #50	; 0x32
 530:	f000 f8f6 	bl	720 <_ZN5hwlib7wait_nsEi>
 534:	68a0      	ldr	r0, [r4, #8]
 536:	2100      	movs	r1, #0
 538:	6803      	ldr	r3, [r0, #0]
 53a:	681b      	ldr	r3, [r3, #0]
 53c:	4798      	blx	r3
 53e:	e7dc      	b.n	4fa <_ZN7MAX72195writeEt+0xae>
 540:	6860      	ldr	r0, [r4, #4]
 542:	2101      	movs	r1, #1
 544:	6803      	ldr	r3, [r0, #0]
 546:	681b      	ldr	r3, [r3, #0]
 548:	4798      	blx	r3
 54a:	2032      	movs	r0, #50	; 0x32
 54c:	b003      	add	sp, #12
 54e:	e8bd 40f0 	ldmia.w	sp!, {r4, r5, r6, r7, lr}
 552:	f000 b8e5 	b.w	720 <_ZN5hwlib7wait_nsEi>
 556:	bf00      	nop
 558:	00000d0a 	.word	0x00000d0a
 55c:	200840a4 	.word	0x200840a4

00000560 <_ZN7MAX72195writeEhh>:
 560:	b537      	push	{r0, r1, r2, r4, r5, lr}
 562:	4605      	mov	r5, r0
 564:	f88d 1007 	strb.w	r1, [sp, #7]
 568:	f88d 2006 	strb.w	r2, [sp, #6]
 56c:	f89d 3007 	ldrb.w	r3, [sp, #7]
 570:	f89d 4006 	ldrb.w	r4, [sp, #6]
 574:	4909      	ldr	r1, [pc, #36]	; (59c <_ZN7MAX72195writeEhh+0x3c>)
 576:	ea44 2403 	orr.w	r4, r4, r3, lsl #8
 57a:	4809      	ldr	r0, [pc, #36]	; (5a0 <_ZN7MAX72195writeEhh+0x40>)
 57c:	f7ff fdc6 	bl	10c <_ZN5hwliblsERNS_7ostreamEPKc>
 580:	b221      	sxth	r1, r4
 582:	f7ff fdf3 	bl	16c <_ZN5hwliblsERNS_7ostreamEi>
 586:	210a      	movs	r1, #10
 588:	f7ff fdb9 	bl	fe <_ZN5hwlib7ostreamlsEc>
 58c:	4621      	mov	r1, r4
 58e:	4628      	mov	r0, r5
 590:	b003      	add	sp, #12
 592:	e8bd 4030 	ldmia.w	sp!, {r4, r5, lr}
 596:	f7ff bf59 	b.w	44c <_ZN7MAX72195writeEt>
 59a:	bf00      	nop
 59c:	00000d0c 	.word	0x00000d0c
 5a0:	200840a4 	.word	0x200840a4

000005a4 <_ZN7MAX721913set_intensityEj>:
 5a4:	1c4a      	adds	r2, r1, #1
 5a6:	b2d2      	uxtb	r2, r2
 5a8:	210a      	movs	r1, #10
 5aa:	f7ff bfd9 	b.w	560 <_ZN7MAX72195writeEhh>

000005ae <_ZN7MAX721916normal_operationEv>:
 5ae:	22ff      	movs	r2, #255	; 0xff
 5b0:	210c      	movs	r1, #12
 5b2:	f7ff bfd5 	b.w	560 <_ZN7MAX72195writeEhh>

000005b6 <_ZN7MAX721910scan_limitEj>:
 5b6:	b2ca      	uxtb	r2, r1
 5b8:	210b      	movs	r1, #11
 5ba:	f7ff bfd1 	b.w	560 <_ZN7MAX72195writeEhh>

000005be <_ZN7MAX72196decodeEv>:
 5be:	2200      	movs	r2, #0
 5c0:	2109      	movs	r1, #9
 5c2:	f7ff bfcd 	b.w	560 <_ZN7MAX72195writeEhh>
	...

000005c8 <switch_from_to>:
 5c8:	b5f0      	push	{r4, r5, r6, r7, lr}
 5ca:	4642      	mov	r2, r8
 5cc:	464b      	mov	r3, r9
 5ce:	4654      	mov	r4, sl
 5d0:	465d      	mov	r5, fp
 5d2:	4666      	mov	r6, ip
 5d4:	b47c      	push	{r2, r3, r4, r5, r6}
 5d6:	466a      	mov	r2, sp
 5d8:	6002      	str	r2, [r0, #0]
 5da:	468d      	mov	sp, r1
 5dc:	bc7c      	pop	{r2, r3, r4, r5, r6}
 5de:	46b4      	mov	ip, r6
 5e0:	46ab      	mov	fp, r5
 5e2:	46a2      	mov	sl, r4
 5e4:	4699      	mov	r9, r3
 5e6:	4690      	mov	r8, r2
 5e8:	bdf0      	pop	{r4, r5, r6, r7, pc}
 5ea:	46c0      	nop			; (mov r8, r8)

000005ec <_ZN4rtos9task_base7releaseEv>:
 5ec:	4b05      	ldr	r3, [pc, #20]	; (604 <_ZN4rtos9task_base7releaseEv+0x18>)
 5ee:	781b      	ldrb	r3, [r3, #0]
 5f0:	b133      	cbz	r3, 600 <_ZN4rtos9task_base7releaseEv+0x14>
 5f2:	4a05      	ldr	r2, [pc, #20]	; (608 <_ZN4rtos9task_base7releaseEv+0x1c>)
 5f4:	4b05      	ldr	r3, [pc, #20]	; (60c <_ZN4rtos9task_base7releaseEv+0x20>)
 5f6:	6810      	ldr	r0, [r2, #0]
 5f8:	6819      	ldr	r1, [r3, #0]
 5fa:	6013      	str	r3, [r2, #0]
 5fc:	f7ff bfe4 	b.w	5c8 <switch_from_to>
 600:	4770      	bx	lr
 602:	bf00      	nop
 604:	20084018 	.word	0x20084018
 608:	2008409c 	.word	0x2008409c
 60c:	20084010 	.word	0x20084010

00000610 <_ZN4rtos9task_base5blockEv>:
 610:	b508      	push	{r3, lr}
 612:	4b14      	ldr	r3, [pc, #80]	; (664 <_ZN4rtos9task_base5blockEv+0x54>)
 614:	781b      	ldrb	r3, [r3, #0]
 616:	b31b      	cbz	r3, 660 <_ZN4rtos9task_base5blockEv+0x50>
 618:	4b13      	ldr	r3, [pc, #76]	; (668 <_ZN4rtos9task_base5blockEv+0x58>)
 61a:	681b      	ldr	r3, [r3, #0]
 61c:	4283      	cmp	r3, r0
 61e:	d00a      	beq.n	636 <_ZN4rtos9task_base5blockEv+0x26>
 620:	4912      	ldr	r1, [pc, #72]	; (66c <_ZN4rtos9task_base5blockEv+0x5c>)
 622:	4813      	ldr	r0, [pc, #76]	; (670 <_ZN4rtos9task_base5blockEv+0x60>)
 624:	f7ff fd72 	bl	10c <_ZN5hwliblsERNS_7ostreamEPKc>
 628:	4912      	ldr	r1, [pc, #72]	; (674 <_ZN4rtos9task_base5blockEv+0x64>)
 62a:	f7ff fd6f 	bl	10c <_ZN5hwliblsERNS_7ostreamEPKc>
 62e:	4912      	ldr	r1, [pc, #72]	; (678 <_ZN4rtos9task_base5blockEv+0x68>)
 630:	f7ff fd6c 	bl	10c <_ZN5hwliblsERNS_7ostreamEPKc>
 634:	e7fe      	b.n	634 <_ZN4rtos9task_base5blockEv+0x24>
 636:	7a5a      	ldrb	r2, [r3, #9]
 638:	b93a      	cbnz	r2, 64a <_ZN4rtos9task_base5blockEv+0x3a>
 63a:	7a1a      	ldrb	r2, [r3, #8]
 63c:	b92a      	cbnz	r2, 64a <_ZN4rtos9task_base5blockEv+0x3a>
 63e:	2201      	movs	r2, #1
 640:	721a      	strb	r2, [r3, #8]
 642:	e8bd 4008 	ldmia.w	sp!, {r3, lr}
 646:	f7ff bfd1 	b.w	5ec <_ZN4rtos9task_base7releaseEv>
 64a:	4908      	ldr	r1, [pc, #32]	; (66c <_ZN4rtos9task_base5blockEv+0x5c>)
 64c:	4808      	ldr	r0, [pc, #32]	; (670 <_ZN4rtos9task_base5blockEv+0x60>)
 64e:	f7ff fd5d 	bl	10c <_ZN5hwliblsERNS_7ostreamEPKc>
 652:	490a      	ldr	r1, [pc, #40]	; (67c <_ZN4rtos9task_base5blockEv+0x6c>)
 654:	f7ff fd5a 	bl	10c <_ZN5hwliblsERNS_7ostreamEPKc>
 658:	4907      	ldr	r1, [pc, #28]	; (678 <_ZN4rtos9task_base5blockEv+0x68>)
 65a:	f7ff fd57 	bl	10c <_ZN5hwliblsERNS_7ostreamEPKc>
 65e:	e7fe      	b.n	65e <_ZN4rtos9task_base5blockEv+0x4e>
 660:	bd08      	pop	{r3, pc}
 662:	bf00      	nop
 664:	20084018 	.word	0x20084018
 668:	20084014 	.word	0x20084014
 66c:	00000db5 	.word	0x00000db5
 670:	200840a4 	.word	0x200840a4
 674:	00000dea 	.word	0x00000dea
 678:	00000de8 	.word	0x00000de8
 67c:	00000e05 	.word	0x00000e05

00000680 <_ZN4rtos12waitable_set4waitEj>:
 680:	b5f8      	push	{r3, r4, r5, r6, r7, lr}
 682:	4605      	mov	r5, r0
 684:	460c      	mov	r4, r1
 686:	4616      	mov	r6, r2
 688:	2700      	movs	r7, #0
 68a:	2300      	movs	r3, #0
 68c:	68e0      	ldr	r0, [r4, #12]
 68e:	4298      	cmp	r0, r3
 690:	d01f      	beq.n	6d2 <_ZN4rtos12waitable_set4waitEj+0x52>
 692:	6861      	ldr	r1, [r4, #4]
 694:	ea01 0206 	and.w	r2, r1, r6
 698:	40da      	lsrs	r2, r3
 69a:	07d2      	lsls	r2, r2, #31
 69c:	d517      	bpl.n	6ce <_ZN4rtos12waitable_set4waitEj+0x4e>
 69e:	2201      	movs	r2, #1
 6a0:	409a      	lsls	r2, r3
 6a2:	4b0f      	ldr	r3, [pc, #60]	; (6e0 <_ZN4rtos12waitable_set4waitEj+0x60>)
 6a4:	ea21 0102 	bic.w	r1, r1, r2
 6a8:	681b      	ldr	r3, [r3, #0]
 6aa:	6820      	ldr	r0, [r4, #0]
 6ac:	6061      	str	r1, [r4, #4]
 6ae:	b143      	cbz	r3, 6c2 <_ZN4rtos12waitable_set4waitEj+0x42>
 6b0:	6859      	ldr	r1, [r3, #4]
 6b2:	4281      	cmp	r1, r0
 6b4:	d109      	bne.n	6ca <_ZN4rtos12waitable_set4waitEj+0x4a>
 6b6:	6899      	ldr	r1, [r3, #8]
 6b8:	428a      	cmp	r2, r1
 6ba:	d106      	bne.n	6ca <_ZN4rtos12waitable_set4waitEj+0x4a>
 6bc:	6999      	ldr	r1, [r3, #24]
 6be:	3101      	adds	r1, #1
 6c0:	6199      	str	r1, [r3, #24]
 6c2:	e9c5 0200 	strd	r0, r2, [r5]
 6c6:	4628      	mov	r0, r5
 6c8:	bdf8      	pop	{r3, r4, r5, r6, r7, pc}
 6ca:	691b      	ldr	r3, [r3, #16]
 6cc:	e7ef      	b.n	6ae <_ZN4rtos12waitable_set4waitEj+0x2e>
 6ce:	3301      	adds	r3, #1
 6d0:	e7dd      	b.n	68e <_ZN4rtos12waitable_set4waitEj+0xe>
 6d2:	6820      	ldr	r0, [r4, #0]
 6d4:	60a6      	str	r6, [r4, #8]
 6d6:	f7ff ff9b 	bl	610 <_ZN4rtos9task_base5blockEv>
 6da:	60a7      	str	r7, [r4, #8]
 6dc:	e7d5      	b.n	68a <_ZN4rtos12waitable_set4waitEj+0xa>
 6de:	bf00      	nop
 6e0:	2008401c 	.word	0x2008401c

000006e4 <_ZN5hwlib7wait_usEi>:
 6e4:	b507      	push	{r0, r1, r2, lr}
 6e6:	4a0c      	ldr	r2, [pc, #48]	; (718 <_ZN5hwlib7wait_usEi+0x34>)
 6e8:	7812      	ldrb	r2, [r2, #0]
 6ea:	b17a      	cbz	r2, 70c <_ZN5hwlib7wait_usEi+0x28>
 6ec:	2300      	movs	r3, #0
 6ee:	4a0b      	ldr	r2, [pc, #44]	; (71c <_ZN5hwlib7wait_usEi+0x38>)
 6f0:	6811      	ldr	r1, [r2, #0]
 6f2:	6d0a      	ldr	r2, [r1, #80]	; 0x50
 6f4:	6408      	str	r0, [r1, #64]	; 0x40
 6f6:	3201      	adds	r2, #1
 6f8:	650a      	str	r2, [r1, #80]	; 0x50
 6fa:	644b      	str	r3, [r1, #68]	; 0x44
 6fc:	6b0a      	ldr	r2, [r1, #48]	; 0x30
 6fe:	4668      	mov	r0, sp
 700:	3114      	adds	r1, #20
 702:	f7ff ffbd 	bl	680 <_ZN4rtos12waitable_set4waitEj>
 706:	b003      	add	sp, #12
 708:	f85d fb04 	ldr.w	pc, [sp], #4
 70c:	b003      	add	sp, #12
 70e:	f85d eb04 	ldr.w	lr, [sp], #4
 712:	f000 b88c 	b.w	82e <_ZN5hwlib12wait_us_busyEi>
 716:	bf00      	nop
 718:	20084018 	.word	0x20084018
 71c:	20084014 	.word	0x20084014

00000720 <_ZN5hwlib7wait_nsEi>:
 720:	f44f 737a 	mov.w	r3, #1000	; 0x3e8
 724:	f200 30e7 	addw	r0, r0, #999	; 0x3e7
 728:	fb90 f0f3 	sdiv	r0, r0, r3
 72c:	f7ff bfda 	b.w	6e4 <_ZN5hwlib7wait_usEi>

00000730 <_ZN5hwlib7wait_msEi>:
 730:	b510      	push	{r4, lr}
 732:	4604      	mov	r4, r0
 734:	2c00      	cmp	r4, #0
 736:	dd05      	ble.n	744 <_ZN5hwlib7wait_msEi+0x14>
 738:	f44f 707a 	mov.w	r0, #1000	; 0x3e8
 73c:	f7ff ffd2 	bl	6e4 <_ZN5hwlib7wait_usEi>
 740:	3c01      	subs	r4, #1
 742:	e7f7      	b.n	734 <_ZN5hwlib7wait_msEi+0x4>
 744:	bd10      	pop	{r4, pc}

00000746 <_ZN5hwlib20cout_using_uart_putc5flushEv>:
 746:	4770      	bx	lr

00000748 <_ZN5hwlib5panicEPKcj>:
 748:	e7fe      	b.n	748 <_ZN5hwlib5panicEPKcj>
	...

0000074c <_ZN5hwlib15background_base18do_background_workEv>:
 74c:	b538      	push	{r3, r4, r5, lr}
 74e:	4d0b      	ldr	r5, [pc, #44]	; (77c <_ZN5hwlib15background_base18do_background_workEv+0x30>)
 750:	782b      	ldrb	r3, [r5, #0]
 752:	b98b      	cbnz	r3, 778 <_ZN5hwlib15background_base18do_background_workEv+0x2c>
 754:	4c0a      	ldr	r4, [pc, #40]	; (780 <_ZN5hwlib15background_base18do_background_workEv+0x34>)
 756:	6823      	ldr	r3, [r4, #0]
 758:	b913      	cbnz	r3, 760 <_ZN5hwlib15background_base18do_background_workEv+0x14>
 75a:	4b0a      	ldr	r3, [pc, #40]	; (784 <_ZN5hwlib15background_base18do_background_workEv+0x38>)
 75c:	681b      	ldr	r3, [r3, #0]
 75e:	6023      	str	r3, [r4, #0]
 760:	6820      	ldr	r0, [r4, #0]
 762:	b148      	cbz	r0, 778 <_ZN5hwlib15background_base18do_background_workEv+0x2c>
 764:	2301      	movs	r3, #1
 766:	702b      	strb	r3, [r5, #0]
 768:	6803      	ldr	r3, [r0, #0]
 76a:	681b      	ldr	r3, [r3, #0]
 76c:	4798      	blx	r3
 76e:	2300      	movs	r3, #0
 770:	702b      	strb	r3, [r5, #0]
 772:	6823      	ldr	r3, [r4, #0]
 774:	685b      	ldr	r3, [r3, #4]
 776:	6023      	str	r3, [r4, #0]
 778:	bd38      	pop	{r3, r4, r5, pc}
 77a:	bf00      	nop
 77c:	20084028 	.word	0x20084028
 780:	20084024 	.word	0x20084024
 784:	20084020 	.word	0x20084020

00000788 <_ZN3due9uart_initEv>:
 788:	4b13      	ldr	r3, [pc, #76]	; (7d8 <_ZN3due9uart_initEv+0x50>)
 78a:	b510      	push	{r4, lr}
 78c:	781a      	ldrb	r2, [r3, #0]
 78e:	bb12      	cbnz	r2, 7d6 <_ZN3due9uart_initEv+0x4e>
 790:	2201      	movs	r2, #1
 792:	f44f 6100 	mov.w	r1, #2048	; 0x800
 796:	f44f 7480 	mov.w	r4, #256	; 0x100
 79a:	701a      	strb	r2, [r3, #0]
 79c:	480f      	ldr	r0, [pc, #60]	; (7dc <_ZN3due9uart_initEv+0x54>)
 79e:	4b10      	ldr	r3, [pc, #64]	; (7e0 <_ZN3due9uart_initEv+0x58>)
 7a0:	6101      	str	r1, [r0, #16]
 7a2:	605c      	str	r4, [r3, #4]
 7a4:	6f1a      	ldr	r2, [r3, #112]	; 0x70
 7a6:	f422 7280 	bic.w	r2, r2, #256	; 0x100
 7aa:	671a      	str	r2, [r3, #112]	; 0x70
 7ac:	f44f 7200 	mov.w	r2, #512	; 0x200
 7b0:	605a      	str	r2, [r3, #4]
 7b2:	6f1a      	ldr	r2, [r3, #112]	; 0x70
 7b4:	f422 7200 	bic.w	r2, r2, #512	; 0x200
 7b8:	671a      	str	r2, [r3, #112]	; 0x70
 7ba:	22ac      	movs	r2, #172	; 0xac
 7bc:	4b09      	ldr	r3, [pc, #36]	; (7e4 <_ZN3due9uart_initEv+0x5c>)
 7be:	6104      	str	r4, [r0, #16]
 7c0:	681b      	ldr	r3, [r3, #0]
 7c2:	601a      	str	r2, [r3, #0]
 7c4:	f640 0288 	movw	r2, #2184	; 0x888
 7c8:	621a      	str	r2, [r3, #32]
 7ca:	f04f 32ff 	mov.w	r2, #4294967295
 7ce:	6059      	str	r1, [r3, #4]
 7d0:	60da      	str	r2, [r3, #12]
 7d2:	2250      	movs	r2, #80	; 0x50
 7d4:	601a      	str	r2, [r3, #0]
 7d6:	bd10      	pop	{r4, pc}
 7d8:	20084029 	.word	0x20084029
 7dc:	400e0600 	.word	0x400e0600
 7e0:	400e0e00 	.word	0x400e0e00
 7e4:	200840a0 	.word	0x200840a0

000007e8 <_ZN3due9uart_putcEc>:
 7e8:	b538      	push	{r3, r4, r5, lr}
 7ea:	4604      	mov	r4, r0
 7ec:	f7ff ffcc 	bl	788 <_ZN3due9uart_initEv>
 7f0:	4d04      	ldr	r5, [pc, #16]	; (804 <_ZN3due9uart_putcEc+0x1c>)
 7f2:	682b      	ldr	r3, [r5, #0]
 7f4:	695a      	ldr	r2, [r3, #20]
 7f6:	0792      	lsls	r2, r2, #30
 7f8:	d402      	bmi.n	800 <_ZN3due9uart_putcEc+0x18>
 7fa:	f7ff ffa7 	bl	74c <_ZN5hwlib15background_base18do_background_workEv>
 7fe:	e7f8      	b.n	7f2 <_ZN3due9uart_putcEc+0xa>
 800:	61dc      	str	r4, [r3, #28]
 802:	bd38      	pop	{r3, r4, r5, pc}
 804:	200840a0 	.word	0x200840a0

00000808 <_ZN5hwlib20cout_using_uart_putc4putcEc>:
 808:	b508      	push	{r3, lr}
 80a:	4608      	mov	r0, r1
 80c:	f7ff fe06 	bl	41c <_ZN5hwlib9uart_putcEc>
 810:	bd08      	pop	{r3, pc}

00000812 <_ZN5hwlib6now_usEv>:
 812:	b538      	push	{r3, r4, r5, lr}
 814:	f7ff fdc4 	bl	3a0 <_ZN3due9now_ticksEv>
 818:	4605      	mov	r5, r0
 81a:	460c      	mov	r4, r1
 81c:	f7ff fdbc 	bl	398 <_ZN3due12ticks_per_usEv>
 820:	4602      	mov	r2, r0
 822:	460b      	mov	r3, r1
 824:	4628      	mov	r0, r5
 826:	4621      	mov	r1, r4
 828:	f000 f8da 	bl	9e0 <__aeabi_uldivmod>
 82c:	bd38      	pop	{r3, r4, r5, pc}

0000082e <_ZN5hwlib12wait_us_busyEi>:
 82e:	b570      	push	{r4, r5, r6, lr}
 830:	4606      	mov	r6, r0
 832:	f7ff ffee 	bl	812 <_ZN5hwlib6now_usEv>
 836:	1984      	adds	r4, r0, r6
 838:	eb41 75e6 	adc.w	r5, r1, r6, asr #31
 83c:	f7ff ffe9 	bl	812 <_ZN5hwlib6now_usEv>
 840:	42a9      	cmp	r1, r5
 842:	bf08      	it	eq
 844:	42a0      	cmpeq	r0, r4
 846:	d3f9      	bcc.n	83c <_ZN5hwlib12wait_us_busyEi+0xe>
 848:	bd70      	pop	{r4, r5, r6, pc}

0000084a <_ZN3due7pin_out5writeEb>:
 84a:	e9d0 3201 	ldrd	r3, r2, [r0, #4]
 84e:	b109      	cbz	r1, 854 <_ZN3due7pin_out5writeEb+0xa>
 850:	631a      	str	r2, [r3, #48]	; 0x30
 852:	4770      	bx	lr
 854:	635a      	str	r2, [r3, #52]	; 0x34
 856:	4770      	bx	lr

00000858 <_ZN3due7pin_out5flushEv>:
 858:	4770      	bx	lr
	...

0000085c <_ZN3due7pin_outC1ENS_4pinsE>:
 85c:	b570      	push	{r4, r5, r6, lr}
 85e:	4604      	mov	r4, r0
 860:	4608      	mov	r0, r1
 862:	460d      	mov	r5, r1
 864:	f7ff fd6c 	bl	340 <_ZN3due8pin_infoENS_4pinsE>
 868:	7806      	ldrb	r6, [r0, #0]
 86a:	4628      	mov	r0, r5
 86c:	f7ff fd68 	bl	340 <_ZN3due8pin_infoENS_4pinsE>
 870:	4b06      	ldr	r3, [pc, #24]	; (88c <_ZN3due7pin_outC1ENS_4pinsE+0x30>)
 872:	7845      	ldrb	r5, [r0, #1]
 874:	6023      	str	r3, [r4, #0]
 876:	4630      	mov	r0, r6
 878:	f7ff fd72 	bl	360 <_ZN3due14port_registersEm>
 87c:	2301      	movs	r3, #1
 87e:	40ab      	lsls	r3, r5
 880:	6060      	str	r0, [r4, #4]
 882:	60a3      	str	r3, [r4, #8]
 884:	6103      	str	r3, [r0, #16]
 886:	4620      	mov	r0, r4
 888:	bd70      	pop	{r4, r5, r6, pc}
 88a:	bf00      	nop
 88c:	00000e3c 	.word	0x00000e3c

00000890 <main>:
 890:	b500      	push	{lr}
 892:	f640 30b8 	movw	r0, #3000	; 0xbb8
 896:	b08f      	sub	sp, #60	; 0x3c
 898:	f7ff ff4a 	bl	730 <_ZN5hwlib7wait_msEi>
 89c:	2107      	movs	r1, #7
 89e:	a801      	add	r0, sp, #4
 8a0:	f7ff ffdc 	bl	85c <_ZN3due7pin_outC1ENS_4pinsE>
 8a4:	2106      	movs	r1, #6
 8a6:	a804      	add	r0, sp, #16
 8a8:	f7ff ffd8 	bl	85c <_ZN3due7pin_outC1ENS_4pinsE>
 8ac:	2105      	movs	r1, #5
 8ae:	a807      	add	r0, sp, #28
 8b0:	f7ff ffd4 	bl	85c <_ZN3due7pin_outC1ENS_4pinsE>
 8b4:	ab07      	add	r3, sp, #28
 8b6:	aa04      	add	r2, sp, #16
 8b8:	a901      	add	r1, sp, #4
 8ba:	a80a      	add	r0, sp, #40	; 0x28
 8bc:	f7ff fdb0 	bl	420 <_ZN7MAX7219C1ERN3due7pin_outES2_S2_>
 8c0:	2107      	movs	r1, #7
 8c2:	a80a      	add	r0, sp, #40	; 0x28
 8c4:	f7ff fe77 	bl	5b6 <_ZN7MAX721910scan_limitEj>
 8c8:	a80a      	add	r0, sp, #40	; 0x28
 8ca:	f7ff fe78 	bl	5be <_ZN7MAX72196decodeEv>
 8ce:	a80a      	add	r0, sp, #40	; 0x28
 8d0:	f7ff fe6d 	bl	5ae <_ZN7MAX721916normal_operationEv>
 8d4:	2200      	movs	r2, #0
 8d6:	a80a      	add	r0, sp, #40	; 0x28
 8d8:	210f      	movs	r1, #15
 8da:	f7ff fe41 	bl	560 <_ZN7MAX72195writeEhh>
 8de:	a80a      	add	r0, sp, #40	; 0x28
 8e0:	2110      	movs	r1, #16
 8e2:	f7ff fe5f 	bl	5a4 <_ZN7MAX721913set_intensityEj>
 8e6:	212e      	movs	r1, #46	; 0x2e
 8e8:	a80a      	add	r0, sp, #40	; 0x28
 8ea:	f7ff fda1 	bl	430 <_ZN7MAX721910find_asciiEc>
 8ee:	2108      	movs	r1, #8
 8f0:	4602      	mov	r2, r0
 8f2:	a80a      	add	r0, sp, #40	; 0x28
 8f4:	f7ff fe34 	bl	560 <_ZN7MAX72195writeEhh>
 8f8:	2000      	movs	r0, #0
 8fa:	b00f      	add	sp, #60	; 0x3c
 8fc:	f85d fb04 	ldr.w	pc, [sp], #4

00000900 <__startup>:
 900:	2100      	movs	r1, #0
 902:	b508      	push	{r3, lr}
 904:	4a09      	ldr	r2, [pc, #36]	; (92c <__startup+0x2c>)
 906:	4b0a      	ldr	r3, [pc, #40]	; (930 <__startup+0x30>)
 908:	4293      	cmp	r3, r2
 90a:	d107      	bne.n	91c <__startup+0x1c>
 90c:	4b09      	ldr	r3, [pc, #36]	; (934 <__startup+0x34>)
 90e:	4a0a      	ldr	r2, [pc, #40]	; (938 <__startup+0x38>)
 910:	490a      	ldr	r1, [pc, #40]	; (93c <__startup+0x3c>)
 912:	428b      	cmp	r3, r1
 914:	d105      	bne.n	922 <__startup+0x22>
 916:	f7ff ffbb 	bl	890 <main>
 91a:	e7fe      	b.n	91a <__startup+0x1a>
 91c:	f843 1b04 	str.w	r1, [r3], #4
 920:	e7f2      	b.n	908 <__startup+0x8>
 922:	f852 0b04 	ldr.w	r0, [r2], #4
 926:	f843 0b04 	str.w	r0, [r3], #4
 92a:	e7f2      	b.n	912 <__startup+0x12>
 92c:	2008402c 	.word	0x2008402c
 930:	20084000 	.word	0x20084000
 934:	2008402c 	.word	0x2008402c
 938:	00000e4c 	.word	0x00000e4c
 93c:	200840b8 	.word	0x200840b8

00000940 <__aeabi_ldivmod>:
 940:	b97b      	cbnz	r3, 962 <__aeabi_ldivmod+0x22>
 942:	b972      	cbnz	r2, 962 <__aeabi_ldivmod+0x22>
 944:	2900      	cmp	r1, #0
 946:	bfbe      	ittt	lt
 948:	2000      	movlt	r0, #0
 94a:	f04f 4100 	movlt.w	r1, #2147483648	; 0x80000000
 94e:	e006      	blt.n	95e <__aeabi_ldivmod+0x1e>
 950:	bf08      	it	eq
 952:	2800      	cmpeq	r0, #0
 954:	bf1c      	itt	ne
 956:	f06f 4100 	mvnne.w	r1, #2147483648	; 0x80000000
 95a:	f04f 30ff 	movne.w	r0, #4294967295
 95e:	f000 b9b9 	b.w	cd4 <__aeabi_ldiv0>
 962:	f1ad 0c08 	sub.w	ip, sp, #8
 966:	e96d ce04 	strd	ip, lr, [sp, #-16]!
 96a:	2900      	cmp	r1, #0
 96c:	db09      	blt.n	982 <__aeabi_ldivmod+0x42>
 96e:	2b00      	cmp	r3, #0
 970:	db1a      	blt.n	9a8 <__aeabi_ldivmod+0x68>
 972:	f000 f84d 	bl	a10 <__udivmoddi4>
 976:	f8dd e004 	ldr.w	lr, [sp, #4]
 97a:	e9dd 2302 	ldrd	r2, r3, [sp, #8]
 97e:	b004      	add	sp, #16
 980:	4770      	bx	lr
 982:	4240      	negs	r0, r0
 984:	eb61 0141 	sbc.w	r1, r1, r1, lsl #1
 988:	2b00      	cmp	r3, #0
 98a:	db1b      	blt.n	9c4 <__aeabi_ldivmod+0x84>
 98c:	f000 f840 	bl	a10 <__udivmoddi4>
 990:	f8dd e004 	ldr.w	lr, [sp, #4]
 994:	e9dd 2302 	ldrd	r2, r3, [sp, #8]
 998:	b004      	add	sp, #16
 99a:	4240      	negs	r0, r0
 99c:	eb61 0141 	sbc.w	r1, r1, r1, lsl #1
 9a0:	4252      	negs	r2, r2
 9a2:	eb63 0343 	sbc.w	r3, r3, r3, lsl #1
 9a6:	4770      	bx	lr
 9a8:	4252      	negs	r2, r2
 9aa:	eb63 0343 	sbc.w	r3, r3, r3, lsl #1
 9ae:	f000 f82f 	bl	a10 <__udivmoddi4>
 9b2:	f8dd e004 	ldr.w	lr, [sp, #4]
 9b6:	e9dd 2302 	ldrd	r2, r3, [sp, #8]
 9ba:	b004      	add	sp, #16
 9bc:	4240      	negs	r0, r0
 9be:	eb61 0141 	sbc.w	r1, r1, r1, lsl #1
 9c2:	4770      	bx	lr
 9c4:	4252      	negs	r2, r2
 9c6:	eb63 0343 	sbc.w	r3, r3, r3, lsl #1
 9ca:	f000 f821 	bl	a10 <__udivmoddi4>
 9ce:	f8dd e004 	ldr.w	lr, [sp, #4]
 9d2:	e9dd 2302 	ldrd	r2, r3, [sp, #8]
 9d6:	b004      	add	sp, #16
 9d8:	4252      	negs	r2, r2
 9da:	eb63 0343 	sbc.w	r3, r3, r3, lsl #1
 9de:	4770      	bx	lr

000009e0 <__aeabi_uldivmod>:
 9e0:	b953      	cbnz	r3, 9f8 <__aeabi_uldivmod+0x18>
 9e2:	b94a      	cbnz	r2, 9f8 <__aeabi_uldivmod+0x18>
 9e4:	2900      	cmp	r1, #0
 9e6:	bf08      	it	eq
 9e8:	2800      	cmpeq	r0, #0
 9ea:	bf1c      	itt	ne
 9ec:	f04f 31ff 	movne.w	r1, #4294967295
 9f0:	f04f 30ff 	movne.w	r0, #4294967295
 9f4:	f000 b96e 	b.w	cd4 <__aeabi_ldiv0>
 9f8:	f1ad 0c08 	sub.w	ip, sp, #8
 9fc:	e96d ce04 	strd	ip, lr, [sp, #-16]!
 a00:	f000 f806 	bl	a10 <__udivmoddi4>
 a04:	f8dd e004 	ldr.w	lr, [sp, #4]
 a08:	e9dd 2302 	ldrd	r2, r3, [sp, #8]
 a0c:	b004      	add	sp, #16
 a0e:	4770      	bx	lr

00000a10 <__udivmoddi4>:
 a10:	e92d 47f0 	stmdb	sp!, {r4, r5, r6, r7, r8, r9, sl, lr}
 a14:	9e08      	ldr	r6, [sp, #32]
 a16:	460d      	mov	r5, r1
 a18:	4604      	mov	r4, r0
 a1a:	468e      	mov	lr, r1
 a1c:	2b00      	cmp	r3, #0
 a1e:	f040 8083 	bne.w	b28 <__udivmoddi4+0x118>
 a22:	428a      	cmp	r2, r1
 a24:	4617      	mov	r7, r2
 a26:	d947      	bls.n	ab8 <__udivmoddi4+0xa8>
 a28:	fab2 f382 	clz	r3, r2
 a2c:	b14b      	cbz	r3, a42 <__udivmoddi4+0x32>
 a2e:	f1c3 0120 	rsb	r1, r3, #32
 a32:	fa05 fe03 	lsl.w	lr, r5, r3
 a36:	fa20 f101 	lsr.w	r1, r0, r1
 a3a:	409f      	lsls	r7, r3
 a3c:	ea41 0e0e 	orr.w	lr, r1, lr
 a40:	409c      	lsls	r4, r3
 a42:	ea4f 4817 	mov.w	r8, r7, lsr #16
 a46:	fbbe fcf8 	udiv	ip, lr, r8
 a4a:	fa1f f987 	uxth.w	r9, r7
 a4e:	fb08 e21c 	mls	r2, r8, ip, lr
 a52:	fb0c f009 	mul.w	r0, ip, r9
 a56:	0c21      	lsrs	r1, r4, #16
 a58:	ea41 4202 	orr.w	r2, r1, r2, lsl #16
 a5c:	4290      	cmp	r0, r2
 a5e:	d90a      	bls.n	a76 <__udivmoddi4+0x66>
 a60:	18ba      	adds	r2, r7, r2
 a62:	f10c 31ff 	add.w	r1, ip, #4294967295
 a66:	f080 8118 	bcs.w	c9a <__udivmoddi4+0x28a>
 a6a:	4290      	cmp	r0, r2
 a6c:	f240 8115 	bls.w	c9a <__udivmoddi4+0x28a>
 a70:	f1ac 0c02 	sub.w	ip, ip, #2
 a74:	443a      	add	r2, r7
 a76:	1a12      	subs	r2, r2, r0
 a78:	fbb2 f0f8 	udiv	r0, r2, r8
 a7c:	fb08 2210 	mls	r2, r8, r0, r2
 a80:	fb00 f109 	mul.w	r1, r0, r9
 a84:	b2a4      	uxth	r4, r4
 a86:	ea44 4402 	orr.w	r4, r4, r2, lsl #16
 a8a:	42a1      	cmp	r1, r4
 a8c:	d909      	bls.n	aa2 <__udivmoddi4+0x92>
 a8e:	193c      	adds	r4, r7, r4
 a90:	f100 32ff 	add.w	r2, r0, #4294967295
 a94:	f080 8103 	bcs.w	c9e <__udivmoddi4+0x28e>
 a98:	42a1      	cmp	r1, r4
 a9a:	f240 8100 	bls.w	c9e <__udivmoddi4+0x28e>
 a9e:	3802      	subs	r0, #2
 aa0:	443c      	add	r4, r7
 aa2:	1a64      	subs	r4, r4, r1
 aa4:	2100      	movs	r1, #0
 aa6:	ea40 400c 	orr.w	r0, r0, ip, lsl #16
 aaa:	b11e      	cbz	r6, ab4 <__udivmoddi4+0xa4>
 aac:	2200      	movs	r2, #0
 aae:	40dc      	lsrs	r4, r3
 ab0:	e9c6 4200 	strd	r4, r2, [r6]
 ab4:	e8bd 87f0 	ldmia.w	sp!, {r4, r5, r6, r7, r8, r9, sl, pc}
 ab8:	b902      	cbnz	r2, abc <__udivmoddi4+0xac>
 aba:	deff      	udf	#255	; 0xff
 abc:	fab2 f382 	clz	r3, r2
 ac0:	2b00      	cmp	r3, #0
 ac2:	d14f      	bne.n	b64 <__udivmoddi4+0x154>
 ac4:	1a8d      	subs	r5, r1, r2
 ac6:	2101      	movs	r1, #1
 ac8:	ea4f 4e12 	mov.w	lr, r2, lsr #16
 acc:	fa1f f882 	uxth.w	r8, r2
 ad0:	fbb5 fcfe 	udiv	ip, r5, lr
 ad4:	fb0e 551c 	mls	r5, lr, ip, r5
 ad8:	fb08 f00c 	mul.w	r0, r8, ip
 adc:	0c22      	lsrs	r2, r4, #16
 ade:	ea42 4505 	orr.w	r5, r2, r5, lsl #16
 ae2:	42a8      	cmp	r0, r5
 ae4:	d907      	bls.n	af6 <__udivmoddi4+0xe6>
 ae6:	197d      	adds	r5, r7, r5
 ae8:	f10c 32ff 	add.w	r2, ip, #4294967295
 aec:	d202      	bcs.n	af4 <__udivmoddi4+0xe4>
 aee:	42a8      	cmp	r0, r5
 af0:	f200 80e9 	bhi.w	cc6 <__udivmoddi4+0x2b6>
 af4:	4694      	mov	ip, r2
 af6:	1a2d      	subs	r5, r5, r0
 af8:	fbb5 f0fe 	udiv	r0, r5, lr
 afc:	fb0e 5510 	mls	r5, lr, r0, r5
 b00:	fb08 f800 	mul.w	r8, r8, r0
 b04:	b2a4      	uxth	r4, r4
 b06:	ea44 4405 	orr.w	r4, r4, r5, lsl #16
 b0a:	45a0      	cmp	r8, r4
 b0c:	d907      	bls.n	b1e <__udivmoddi4+0x10e>
 b0e:	193c      	adds	r4, r7, r4
 b10:	f100 32ff 	add.w	r2, r0, #4294967295
 b14:	d202      	bcs.n	b1c <__udivmoddi4+0x10c>
 b16:	45a0      	cmp	r8, r4
 b18:	f200 80d9 	bhi.w	cce <__udivmoddi4+0x2be>
 b1c:	4610      	mov	r0, r2
 b1e:	eba4 0408 	sub.w	r4, r4, r8
 b22:	ea40 400c 	orr.w	r0, r0, ip, lsl #16
 b26:	e7c0      	b.n	aaa <__udivmoddi4+0x9a>
 b28:	428b      	cmp	r3, r1
 b2a:	d908      	bls.n	b3e <__udivmoddi4+0x12e>
 b2c:	2e00      	cmp	r6, #0
 b2e:	f000 80b1 	beq.w	c94 <__udivmoddi4+0x284>
 b32:	2100      	movs	r1, #0
 b34:	e9c6 0500 	strd	r0, r5, [r6]
 b38:	4608      	mov	r0, r1
 b3a:	e8bd 87f0 	ldmia.w	sp!, {r4, r5, r6, r7, r8, r9, sl, pc}
 b3e:	fab3 f183 	clz	r1, r3
 b42:	2900      	cmp	r1, #0
 b44:	d14b      	bne.n	bde <__udivmoddi4+0x1ce>
 b46:	42ab      	cmp	r3, r5
 b48:	d302      	bcc.n	b50 <__udivmoddi4+0x140>
 b4a:	4282      	cmp	r2, r0
 b4c:	f200 80b9 	bhi.w	cc2 <__udivmoddi4+0x2b2>
 b50:	1a84      	subs	r4, r0, r2
 b52:	eb65 0303 	sbc.w	r3, r5, r3
 b56:	2001      	movs	r0, #1
 b58:	469e      	mov	lr, r3
 b5a:	2e00      	cmp	r6, #0
 b5c:	d0aa      	beq.n	ab4 <__udivmoddi4+0xa4>
 b5e:	e9c6 4e00 	strd	r4, lr, [r6]
 b62:	e7a7      	b.n	ab4 <__udivmoddi4+0xa4>
 b64:	409f      	lsls	r7, r3
 b66:	f1c3 0220 	rsb	r2, r3, #32
 b6a:	40d1      	lsrs	r1, r2
 b6c:	ea4f 4e17 	mov.w	lr, r7, lsr #16
 b70:	fbb1 f0fe 	udiv	r0, r1, lr
 b74:	fa1f f887 	uxth.w	r8, r7
 b78:	fb0e 1110 	mls	r1, lr, r0, r1
 b7c:	fa24 f202 	lsr.w	r2, r4, r2
 b80:	409d      	lsls	r5, r3
 b82:	fb00 fc08 	mul.w	ip, r0, r8
 b86:	432a      	orrs	r2, r5
 b88:	0c15      	lsrs	r5, r2, #16
 b8a:	ea45 4501 	orr.w	r5, r5, r1, lsl #16
 b8e:	45ac      	cmp	ip, r5
 b90:	fa04 f403 	lsl.w	r4, r4, r3
 b94:	d909      	bls.n	baa <__udivmoddi4+0x19a>
 b96:	197d      	adds	r5, r7, r5
 b98:	f100 31ff 	add.w	r1, r0, #4294967295
 b9c:	f080 808f 	bcs.w	cbe <__udivmoddi4+0x2ae>
 ba0:	45ac      	cmp	ip, r5
 ba2:	f240 808c 	bls.w	cbe <__udivmoddi4+0x2ae>
 ba6:	3802      	subs	r0, #2
 ba8:	443d      	add	r5, r7
 baa:	eba5 050c 	sub.w	r5, r5, ip
 bae:	fbb5 f1fe 	udiv	r1, r5, lr
 bb2:	fb0e 5c11 	mls	ip, lr, r1, r5
 bb6:	fb01 f908 	mul.w	r9, r1, r8
 bba:	b295      	uxth	r5, r2
 bbc:	ea45 450c 	orr.w	r5, r5, ip, lsl #16
 bc0:	45a9      	cmp	r9, r5
 bc2:	d907      	bls.n	bd4 <__udivmoddi4+0x1c4>
 bc4:	197d      	adds	r5, r7, r5
 bc6:	f101 32ff 	add.w	r2, r1, #4294967295
 bca:	d274      	bcs.n	cb6 <__udivmoddi4+0x2a6>
 bcc:	45a9      	cmp	r9, r5
 bce:	d972      	bls.n	cb6 <__udivmoddi4+0x2a6>
 bd0:	3902      	subs	r1, #2
 bd2:	443d      	add	r5, r7
 bd4:	eba5 0509 	sub.w	r5, r5, r9
 bd8:	ea41 4100 	orr.w	r1, r1, r0, lsl #16
 bdc:	e778      	b.n	ad0 <__udivmoddi4+0xc0>
 bde:	f1c1 0720 	rsb	r7, r1, #32
 be2:	408b      	lsls	r3, r1
 be4:	fa22 fc07 	lsr.w	ip, r2, r7
 be8:	ea4c 0c03 	orr.w	ip, ip, r3
 bec:	fa25 f407 	lsr.w	r4, r5, r7
 bf0:	ea4f 4e1c 	mov.w	lr, ip, lsr #16
 bf4:	fbb4 f9fe 	udiv	r9, r4, lr
 bf8:	fa1f f88c 	uxth.w	r8, ip
 bfc:	fb0e 4419 	mls	r4, lr, r9, r4
 c00:	fa20 f307 	lsr.w	r3, r0, r7
 c04:	fb09 fa08 	mul.w	sl, r9, r8
 c08:	408d      	lsls	r5, r1
 c0a:	431d      	orrs	r5, r3
 c0c:	0c2b      	lsrs	r3, r5, #16
 c0e:	ea43 4404 	orr.w	r4, r3, r4, lsl #16
 c12:	45a2      	cmp	sl, r4
 c14:	fa02 f201 	lsl.w	r2, r2, r1
 c18:	fa00 f301 	lsl.w	r3, r0, r1
 c1c:	d909      	bls.n	c32 <__udivmoddi4+0x222>
 c1e:	eb1c 0404 	adds.w	r4, ip, r4
 c22:	f109 30ff 	add.w	r0, r9, #4294967295
 c26:	d248      	bcs.n	cba <__udivmoddi4+0x2aa>
 c28:	45a2      	cmp	sl, r4
 c2a:	d946      	bls.n	cba <__udivmoddi4+0x2aa>
 c2c:	f1a9 0902 	sub.w	r9, r9, #2
 c30:	4464      	add	r4, ip
 c32:	eba4 040a 	sub.w	r4, r4, sl
 c36:	fbb4 f0fe 	udiv	r0, r4, lr
 c3a:	fb0e 4410 	mls	r4, lr, r0, r4
 c3e:	fb00 fa08 	mul.w	sl, r0, r8
 c42:	b2ad      	uxth	r5, r5
 c44:	ea45 4404 	orr.w	r4, r5, r4, lsl #16
 c48:	45a2      	cmp	sl, r4
 c4a:	d908      	bls.n	c5e <__udivmoddi4+0x24e>
 c4c:	eb1c 0404 	adds.w	r4, ip, r4
 c50:	f100 35ff 	add.w	r5, r0, #4294967295
 c54:	d22d      	bcs.n	cb2 <__udivmoddi4+0x2a2>
 c56:	45a2      	cmp	sl, r4
 c58:	d92b      	bls.n	cb2 <__udivmoddi4+0x2a2>
 c5a:	3802      	subs	r0, #2
 c5c:	4464      	add	r4, ip
 c5e:	ea40 4009 	orr.w	r0, r0, r9, lsl #16
 c62:	fba0 8902 	umull	r8, r9, r0, r2
 c66:	eba4 040a 	sub.w	r4, r4, sl
 c6a:	454c      	cmp	r4, r9
 c6c:	46c6      	mov	lr, r8
 c6e:	464d      	mov	r5, r9
 c70:	d319      	bcc.n	ca6 <__udivmoddi4+0x296>
 c72:	d016      	beq.n	ca2 <__udivmoddi4+0x292>
 c74:	b15e      	cbz	r6, c8e <__udivmoddi4+0x27e>
 c76:	ebb3 020e 	subs.w	r2, r3, lr
 c7a:	eb64 0405 	sbc.w	r4, r4, r5
 c7e:	fa04 f707 	lsl.w	r7, r4, r7
 c82:	fa22 f301 	lsr.w	r3, r2, r1
 c86:	431f      	orrs	r7, r3
 c88:	40cc      	lsrs	r4, r1
 c8a:	e9c6 7400 	strd	r7, r4, [r6]
 c8e:	2100      	movs	r1, #0
 c90:	e8bd 87f0 	ldmia.w	sp!, {r4, r5, r6, r7, r8, r9, sl, pc}
 c94:	4631      	mov	r1, r6
 c96:	4630      	mov	r0, r6
 c98:	e70c      	b.n	ab4 <__udivmoddi4+0xa4>
 c9a:	468c      	mov	ip, r1
 c9c:	e6eb      	b.n	a76 <__udivmoddi4+0x66>
 c9e:	4610      	mov	r0, r2
 ca0:	e6ff      	b.n	aa2 <__udivmoddi4+0x92>
 ca2:	4543      	cmp	r3, r8
 ca4:	d2e6      	bcs.n	c74 <__udivmoddi4+0x264>
 ca6:	ebb8 0e02 	subs.w	lr, r8, r2
 caa:	eb69 050c 	sbc.w	r5, r9, ip
 cae:	3801      	subs	r0, #1
 cb0:	e7e0      	b.n	c74 <__udivmoddi4+0x264>
 cb2:	4628      	mov	r0, r5
 cb4:	e7d3      	b.n	c5e <__udivmoddi4+0x24e>
 cb6:	4611      	mov	r1, r2
 cb8:	e78c      	b.n	bd4 <__udivmoddi4+0x1c4>
 cba:	4681      	mov	r9, r0
 cbc:	e7b9      	b.n	c32 <__udivmoddi4+0x222>
 cbe:	4608      	mov	r0, r1
 cc0:	e773      	b.n	baa <__udivmoddi4+0x19a>
 cc2:	4608      	mov	r0, r1
 cc4:	e749      	b.n	b5a <__udivmoddi4+0x14a>
 cc6:	f1ac 0c02 	sub.w	ip, ip, #2
 cca:	443d      	add	r5, r7
 ccc:	e713      	b.n	af6 <__udivmoddi4+0xe6>
 cce:	3802      	subs	r0, #2
 cd0:	443c      	add	r4, r7
 cd2:	e724      	b.n	b1e <__udivmoddi4+0x10e>

00000cd4 <__aeabi_ldiv0>:
 cd4:	4770      	bx	lr
 cd6:	bf00      	nop
 cd8:	2e2f2e2e 	.word	0x2e2f2e2e
 cdc:	77682f2e 	.word	0x77682f2e
 ce0:	2f62696c 	.word	0x2f62696c
 ce4:	7262696c 	.word	0x7262696c
 ce8:	2f797261 	.word	0x2f797261
 cec:	67726174 	.word	0x67726174
 cf0:	2f737465 	.word	0x2f737465
 cf4:	696c7768 	.word	0x696c7768
 cf8:	72612d62 	.word	0x72612d62
 cfc:	6e697564 	.word	0x6e697564
 d00:	75642d6f 	.word	0x75642d6f
 d04:	70682e65 	.word	0x70682e65
 d08:	0070      	.short	0x0070
 d0a:	0030      	.short	0x0030
 d0c:	74736574 	.word	0x74736574
	...

00000d11 <_ZZN3due8pin_infoENS_4pinsEE14pin_info_array>:
 d11:	09000800 1c021901 19021a02 17021802     ................
 d21:	15021602 07031d02 1b010803 05030403     ................
 d31:	0c000d00 0a000b00 0d010c01 0e001a01     ................
 d41:	00030f00 02030103 06030303 07000903     ................
 d51:	01020a03 03020202 05020402 07020602     ................
 d61:	09020802 14001300 12021302 10021102     ................
 d71:	0e020f02 0c020d02 0e011501 18001000     ................
 d81:	16001700 04000600 02000300 12011101     ................
 d91:	14011301 10010f01 00000100 0c010d01     ................
 da1:	11001200 08000900 1b001b01 1a001900     ................
 db1:	1a021d02 203e3e0a 61746146 7265206c     .....>> Fatal er
 dc1:	3a726f72 6f630020 7261706d 20676e69     ror: .comparing 
 dd1:	6f636e69 7461706d 656c6269 69617720     incompatible wai
 de1:	6c626174 0a007365 73617400 6f6e206b     tables...task no
 df1:	6c622074 656b636f 79622064 73746920     t blocked by its
 e01:	00666c65 6e6e7572 20676e69 6b736174     elf.running task
 e11:	20736920 20746f6e 44414552 003f2159      is not READY!?.
 e21:	                                         ...

00000e24 <_ZTVN5hwlib20cout_using_uart_putcE>:
	...
 e2c:	00000809 00000747                       ....G...

00000e34 <_ZTVN3due7pin_outE>:
	...
 e3c:	0000084b 00000859                       K...Y...
