
main.elf:     file format elf32-littlearm


Disassembly of section .text:

00000000 <__vectors>:
       0:	00 40 08 20 f1 0f 00 00 00 00 00 00 00 00 00 00     .@. ............
	...

00000040 <__externalISR>:
	...

000000b8 <_ZN6sam3xa10SystemInitEv>:
      b8:	f44f 6380 	mov.w	r3, #1024	; 0x400
      bc:	4a16      	ldr	r2, [pc, #88]	; (118 <_ZN6sam3xa10SystemInitEv+0x60>)
      be:	6013      	str	r3, [r2, #0]
      c0:	f8c2 3200 	str.w	r3, [r2, #512]	; 0x200
      c4:	4b15      	ldr	r3, [pc, #84]	; (11c <_ZN6sam3xa10SystemInitEv+0x64>)
      c6:	6a1a      	ldr	r2, [r3, #32]
      c8:	01d2      	lsls	r2, r2, #7
      ca:	d404      	bmi.n	d6 <_ZN6sam3xa10SystemInitEv+0x1e>
      cc:	4a14      	ldr	r2, [pc, #80]	; (120 <_ZN6sam3xa10SystemInitEv+0x68>)
      ce:	621a      	str	r2, [r3, #32]
      d0:	6e9a      	ldr	r2, [r3, #104]	; 0x68
      d2:	07d0      	lsls	r0, r2, #31
      d4:	d5fc      	bpl.n	d0 <_ZN6sam3xa10SystemInitEv+0x18>
      d6:	4a13      	ldr	r2, [pc, #76]	; (124 <_ZN6sam3xa10SystemInitEv+0x6c>)
      d8:	621a      	str	r2, [r3, #32]
      da:	6e9a      	ldr	r2, [r3, #104]	; 0x68
      dc:	03d1      	lsls	r1, r2, #15
      de:	d5fc      	bpl.n	da <_ZN6sam3xa10SystemInitEv+0x22>
      e0:	6b1a      	ldr	r2, [r3, #48]	; 0x30
      e2:	f022 0203 	bic.w	r2, r2, #3
      e6:	f042 0201 	orr.w	r2, r2, #1
      ea:	631a      	str	r2, [r3, #48]	; 0x30
      ec:	6e9a      	ldr	r2, [r3, #104]	; 0x68
      ee:	0712      	lsls	r2, r2, #28
      f0:	d5fc      	bpl.n	ec <_ZN6sam3xa10SystemInitEv+0x34>
      f2:	4a0d      	ldr	r2, [pc, #52]	; (128 <_ZN6sam3xa10SystemInitEv+0x70>)
      f4:	629a      	str	r2, [r3, #40]	; 0x28
      f6:	6e9a      	ldr	r2, [r3, #104]	; 0x68
      f8:	0790      	lsls	r0, r2, #30
      fa:	d5fc      	bpl.n	f6 <_ZN6sam3xa10SystemInitEv+0x3e>
      fc:	2211      	movs	r2, #17
      fe:	631a      	str	r2, [r3, #48]	; 0x30
     100:	6e9a      	ldr	r2, [r3, #104]	; 0x68
     102:	0711      	lsls	r1, r2, #28
     104:	d5fc      	bpl.n	100 <_ZN6sam3xa10SystemInitEv+0x48>
     106:	2212      	movs	r2, #18
     108:	631a      	str	r2, [r3, #48]	; 0x30
     10a:	6e9a      	ldr	r2, [r3, #104]	; 0x68
     10c:	0712      	lsls	r2, r2, #28
     10e:	d5fc      	bpl.n	10a <_ZN6sam3xa10SystemInitEv+0x52>
     110:	4b06      	ldr	r3, [pc, #24]	; (12c <_ZN6sam3xa10SystemInitEv+0x74>)
     112:	4a07      	ldr	r2, [pc, #28]	; (130 <_ZN6sam3xa10SystemInitEv+0x78>)
     114:	601a      	str	r2, [r3, #0]
     116:	4770      	bx	lr
     118:	400e0a00 	.word	0x400e0a00
     11c:	400e0600 	.word	0x400e0600
     120:	00370809 	.word	0x00370809
     124:	01370809 	.word	0x01370809
     128:	200d3f01 	.word	0x200d3f01
     12c:	2008409c 	.word	0x2008409c
     130:	0501bd00 	.word	0x0501bd00

00000134 <_ZN3due8pin_infoENS_4pinsE>:
     134:	2851      	cmp	r0, #81	; 0x51
     136:	b508      	push	{r3, lr}
     138:	d903      	bls.n	142 <_ZN3due8pin_infoENS_4pinsE+0xe>
     13a:	21ba      	movs	r1, #186	; 0xba
     13c:	4803      	ldr	r0, [pc, #12]	; (14c <_ZN3due8pin_infoENS_4pinsE+0x18>)
     13e:	f000 fe6d 	bl	e1c <_ZN5hwlib5panicEPKcj>
     142:	4b03      	ldr	r3, [pc, #12]	; (150 <_ZN3due8pin_infoENS_4pinsE+0x1c>)
     144:	eb03 0040 	add.w	r0, r3, r0, lsl #1
     148:	bd08      	pop	{r3, pc}
     14a:	bf00      	nop
     14c:	00001328 	.word	0x00001328
     150:	0000135a 	.word	0x0000135a

00000154 <_ZN3due14port_registersEm>:
     154:	f44f 4200 	mov.w	r2, #32768	; 0x8000
     158:	b508      	push	{r3, lr}
     15a:	4b0a      	ldr	r3, [pc, #40]	; (184 <_ZN3due14port_registersEm+0x30>)
     15c:	2803      	cmp	r0, #3
     15e:	605a      	str	r2, [r3, #4]
     160:	f44f 32fc 	mov.w	r2, #129024	; 0x1f800
     164:	f5a3 53a2 	sub.w	r3, r3, #5184	; 0x1440
     168:	f1a3 0310 	sub.w	r3, r3, #16
     16c:	611a      	str	r2, [r3, #16]
     16e:	d804      	bhi.n	17a <_ZN3due14port_registersEm+0x26>
     170:	f503 6300 	add.w	r3, r3, #2048	; 0x800
     174:	eb03 2040 	add.w	r0, r3, r0, lsl #9
     178:	bd08      	pop	{r3, pc}
     17a:	f44f 7191 	mov.w	r1, #290	; 0x122
     17e:	4802      	ldr	r0, [pc, #8]	; (188 <_ZN3due14port_registersEm+0x34>)
     180:	f000 fe4c 	bl	e1c <_ZN5hwlib5panicEPKcj>
     184:	400e1a50 	.word	0x400e1a50
     188:	00001328 	.word	0x00001328

0000018c <_ZN3due12ticks_per_usEv>:
     18c:	2054      	movs	r0, #84	; 0x54
     18e:	2100      	movs	r1, #0
     190:	4770      	bx	lr
	...

00000194 <_ZN3due9now_ticksEv>:
     194:	b538      	push	{r3, r4, r5, lr}
     196:	4d18      	ldr	r5, [pc, #96]	; (1f8 <_ZN3due9now_ticksEv+0x64>)
     198:	782c      	ldrb	r4, [r5, #0]
     19a:	b9ac      	cbnz	r4, 1c8 <_ZN3due9now_ticksEv+0x34>
     19c:	f44f 4200 	mov.w	r2, #32768	; 0x8000
     1a0:	4b16      	ldr	r3, [pc, #88]	; (1fc <_ZN3due9now_ticksEv+0x68>)
     1a2:	605a      	str	r2, [r3, #4]
     1a4:	f7ff ff88 	bl	b8 <_ZN6sam3xa10SystemInitEv>
     1a8:	f44f 6380 	mov.w	r3, #1024	; 0x400
     1ac:	4a14      	ldr	r2, [pc, #80]	; (200 <_ZN3due9now_ticksEv+0x6c>)
     1ae:	6013      	str	r3, [r2, #0]
     1b0:	f8c2 3200 	str.w	r3, [r2, #512]	; 0x200
     1b4:	f06f 427f 	mvn.w	r2, #4278190080	; 0xff000000
     1b8:	4b12      	ldr	r3, [pc, #72]	; (204 <_ZN3due9now_ticksEv+0x70>)
     1ba:	601c      	str	r4, [r3, #0]
     1bc:	605a      	str	r2, [r3, #4]
     1be:	2205      	movs	r2, #5
     1c0:	609c      	str	r4, [r3, #8]
     1c2:	601a      	str	r2, [r3, #0]
     1c4:	2301      	movs	r3, #1
     1c6:	702b      	strb	r3, [r5, #0]
     1c8:	4b0e      	ldr	r3, [pc, #56]	; (204 <_ZN3due9now_ticksEv+0x70>)
     1ca:	480f      	ldr	r0, [pc, #60]	; (208 <_ZN3due9now_ticksEv+0x74>)
     1cc:	689b      	ldr	r3, [r3, #8]
     1ce:	6801      	ldr	r1, [r0, #0]
     1d0:	43db      	mvns	r3, r3
     1d2:	f023 437f 	bic.w	r3, r3, #4278190080	; 0xff000000
     1d6:	4299      	cmp	r1, r3
     1d8:	4a0c      	ldr	r2, [pc, #48]	; (20c <_ZN3due9now_ticksEv+0x78>)
     1da:	d907      	bls.n	1ec <_ZN3due9now_ticksEv+0x58>
     1dc:	e9d2 1400 	ldrd	r1, r4, [r2]
     1e0:	f111 7180 	adds.w	r1, r1, #16777216	; 0x1000000
     1e4:	f144 0400 	adc.w	r4, r4, #0
     1e8:	e9c2 1400 	strd	r1, r4, [r2]
     1ec:	6003      	str	r3, [r0, #0]
     1ee:	6810      	ldr	r0, [r2, #0]
     1f0:	6851      	ldr	r1, [r2, #4]
     1f2:	4318      	orrs	r0, r3
     1f4:	bd38      	pop	{r3, r4, r5, pc}
     1f6:	bf00      	nop
     1f8:	2008400c 	.word	0x2008400c
     1fc:	400e1a50 	.word	0x400e1a50
     200:	400e0a00 	.word	0x400e0a00
     204:	e000e010 	.word	0xe000e010
     208:	20084008 	.word	0x20084008
     20c:	20084000 	.word	0x20084000

00000210 <_ZN5hwlib9uart_putcEc>:
     210:	f000 bebc 	b.w	f8c <_ZN3due9uart_putcEc>

00000214 <_ZN7MAX7219C1ERN3due7pin_outES2_S2_>:
     214:	6083      	str	r3, [r0, #8]
     216:	2300      	movs	r3, #0
     218:	b510      	push	{r4, lr}
     21a:	e9c0 1200 	strd	r1, r2, [r0]
     21e:	60c3      	str	r3, [r0, #12]
     220:	bd10      	pop	{r4, pc}

00000222 <_ZN7MAX721919convert_int_to_charEjPhj>:
     222:	b510      	push	{r4, lr}
     224:	240a      	movs	r4, #10
     226:	4413      	add	r3, r2
     228:	4293      	cmp	r3, r2
     22a:	d008      	beq.n	23e <_ZN7MAX721919convert_int_to_charEjPhj+0x1c>
     22c:	fbb1 f0f4 	udiv	r0, r1, r4
     230:	fb04 1110 	mls	r1, r4, r0, r1
     234:	3130      	adds	r1, #48	; 0x30
     236:	f803 1d01 	strb.w	r1, [r3, #-1]!
     23a:	4601      	mov	r1, r0
     23c:	e7f4      	b.n	228 <_ZN7MAX721919convert_int_to_charEjPhj+0x6>
     23e:	bd10      	pop	{r4, pc}

00000240 <_ZN7MAX721915get_font_binaryEh>:
     240:	2300      	movs	r3, #0
     242:	4a05      	ldr	r2, [pc, #20]	; (258 <_ZN7MAX721915get_font_binaryEh+0x18>)
     244:	f812 0013 	ldrb.w	r0, [r2, r3, lsl #1]
     248:	4288      	cmp	r0, r1
     24a:	d103      	bne.n	254 <_ZN7MAX721915get_font_binaryEh+0x14>
     24c:	eb02 0343 	add.w	r3, r2, r3, lsl #1
     250:	7858      	ldrb	r0, [r3, #1]
     252:	4770      	bx	lr
     254:	3301      	adds	r3, #1
     256:	e7f5      	b.n	244 <_ZN7MAX721915get_font_binaryEh+0x4>
     258:	20084030 	.word	0x20084030

0000025c <_ZN7MAX72195writeEt>:
     25c:	b5f8      	push	{r3, r4, r5, r6, r7, lr}
     25e:	4604      	mov	r4, r0
     260:	6840      	ldr	r0, [r0, #4]
     262:	460d      	mov	r5, r1
     264:	6803      	ldr	r3, [r0, #0]
     266:	2100      	movs	r1, #0
     268:	681b      	ldr	r3, [r3, #0]
     26a:	4798      	blx	r3
     26c:	2019      	movs	r0, #25
     26e:	f000 fd6f 	bl	d50 <_ZN5hwlib7wait_nsEi>
     272:	2710      	movs	r7, #16
     274:	0429      	lsls	r1, r5, #16
     276:	d415      	bmi.n	2a4 <_ZN7MAX72195writeEt+0x48>
     278:	6820      	ldr	r0, [r4, #0]
     27a:	2100      	movs	r1, #0
     27c:	6803      	ldr	r3, [r0, #0]
     27e:	006d      	lsls	r5, r5, #1
     280:	681b      	ldr	r3, [r3, #0]
     282:	4798      	blx	r3
     284:	68a0      	ldr	r0, [r4, #8]
     286:	2101      	movs	r1, #1
     288:	6803      	ldr	r3, [r0, #0]
     28a:	b2ad      	uxth	r5, r5
     28c:	681b      	ldr	r3, [r3, #0]
     28e:	4798      	blx	r3
     290:	2032      	movs	r0, #50	; 0x32
     292:	f000 fd5d 	bl	d50 <_ZN5hwlib7wait_nsEi>
     296:	68a0      	ldr	r0, [r4, #8]
     298:	2100      	movs	r1, #0
     29a:	6803      	ldr	r3, [r0, #0]
     29c:	3f01      	subs	r7, #1
     29e:	681b      	ldr	r3, [r3, #0]
     2a0:	4798      	blx	r3
     2a2:	e7e7      	b.n	274 <_ZN7MAX72195writeEt+0x18>
     2a4:	2600      	movs	r6, #0
     2a6:	42b7      	cmp	r7, r6
     2a8:	d02f      	beq.n	30a <_ZN7MAX72195writeEt+0xae>
     2aa:	6820      	ldr	r0, [r4, #0]
     2ac:	042a      	lsls	r2, r5, #16
     2ae:	6803      	ldr	r3, [r0, #0]
     2b0:	681b      	ldr	r3, [r3, #0]
     2b2:	d51a      	bpl.n	2ea <_ZN7MAX72195writeEt+0x8e>
     2b4:	2101      	movs	r1, #1
     2b6:	4798      	blx	r3
     2b8:	68a0      	ldr	r0, [r4, #8]
     2ba:	2101      	movs	r1, #1
     2bc:	6803      	ldr	r3, [r0, #0]
     2be:	681b      	ldr	r3, [r3, #0]
     2c0:	4798      	blx	r3
     2c2:	2032      	movs	r0, #50	; 0x32
     2c4:	f000 fd44 	bl	d50 <_ZN5hwlib7wait_nsEi>
     2c8:	6820      	ldr	r0, [r4, #0]
     2ca:	2100      	movs	r1, #0
     2cc:	6803      	ldr	r3, [r0, #0]
     2ce:	681b      	ldr	r3, [r3, #0]
     2d0:	4798      	blx	r3
     2d2:	68a0      	ldr	r0, [r4, #8]
     2d4:	2100      	movs	r1, #0
     2d6:	6803      	ldr	r3, [r0, #0]
     2d8:	681b      	ldr	r3, [r3, #0]
     2da:	4798      	blx	r3
     2dc:	2032      	movs	r0, #50	; 0x32
     2de:	f000 fd37 	bl	d50 <_ZN5hwlib7wait_nsEi>
     2e2:	006d      	lsls	r5, r5, #1
     2e4:	b2ad      	uxth	r5, r5
     2e6:	3601      	adds	r6, #1
     2e8:	e7dd      	b.n	2a6 <_ZN7MAX72195writeEt+0x4a>
     2ea:	2100      	movs	r1, #0
     2ec:	4798      	blx	r3
     2ee:	68a0      	ldr	r0, [r4, #8]
     2f0:	2101      	movs	r1, #1
     2f2:	6803      	ldr	r3, [r0, #0]
     2f4:	681b      	ldr	r3, [r3, #0]
     2f6:	4798      	blx	r3
     2f8:	2032      	movs	r0, #50	; 0x32
     2fa:	f000 fd29 	bl	d50 <_ZN5hwlib7wait_nsEi>
     2fe:	68a0      	ldr	r0, [r4, #8]
     300:	2100      	movs	r1, #0
     302:	6803      	ldr	r3, [r0, #0]
     304:	681b      	ldr	r3, [r3, #0]
     306:	4798      	blx	r3
     308:	e7eb      	b.n	2e2 <_ZN7MAX72195writeEt+0x86>
     30a:	6860      	ldr	r0, [r4, #4]
     30c:	2101      	movs	r1, #1
     30e:	6803      	ldr	r3, [r0, #0]
     310:	681b      	ldr	r3, [r3, #0]
     312:	4798      	blx	r3
     314:	e8bd 40f8 	ldmia.w	sp!, {r3, r4, r5, r6, r7, lr}
     318:	2032      	movs	r0, #50	; 0x32
     31a:	f000 bd19 	b.w	d50 <_ZN5hwlib7wait_nsEi>

0000031e <_ZN7MAX72195writeEhh>:
     31e:	ea42 2101 	orr.w	r1, r2, r1, lsl #8
     322:	f7ff bf9b 	b.w	25c <_ZN7MAX72195writeEt>
	...

00000328 <_ZN7MAX72199write_intEj>:
     328:	e92d 41f3 	stmdb	sp!, {r0, r1, r4, r5, r6, r7, r8, lr}
     32c:	460b      	mov	r3, r1
     32e:	4604      	mov	r4, r0
     330:	2600      	movs	r6, #0
     332:	200a      	movs	r0, #10
     334:	461a      	mov	r2, r3
     336:	2a09      	cmp	r2, #9
     338:	fbb3 f3f0 	udiv	r3, r3, r0
     33c:	f106 0601 	add.w	r6, r6, #1
     340:	d8f8      	bhi.n	334 <_ZN7MAX72199write_intEj+0xc>
     342:	4633      	mov	r3, r6
     344:	466a      	mov	r2, sp
     346:	4620      	mov	r0, r4
     348:	f7ff ff6b 	bl	222 <_ZN7MAX721919convert_int_to_charEjPhj>
     34c:	2500      	movs	r5, #0
     34e:	4f0a      	ldr	r7, [pc, #40]	; (378 <_ZN7MAX72199write_intEj+0x50>)
     350:	42b5      	cmp	r5, r6
     352:	d00d      	beq.n	370 <_ZN7MAX72199write_intEj+0x48>
     354:	f81d 1005 	ldrb.w	r1, [sp, r5]
     358:	4620      	mov	r0, r4
     35a:	f7ff ff71 	bl	240 <_ZN7MAX721915get_font_binaryEh>
     35e:	f817 8b01 	ldrb.w	r8, [r7], #1
     362:	4602      	mov	r2, r0
     364:	4641      	mov	r1, r8
     366:	4620      	mov	r0, r4
     368:	f7ff ffd9 	bl	31e <_ZN7MAX72195writeEhh>
     36c:	3501      	adds	r5, #1
     36e:	e7ef      	b.n	350 <_ZN7MAX72199write_intEj+0x28>
     370:	b002      	add	sp, #8
     372:	e8bd 81f0 	ldmia.w	sp!, {r4, r5, r6, r7, r8, pc}
     376:	bf00      	nop
     378:	200840a0 	.word	0x200840a0

0000037c <_ZN7MAX721912write_stringEN5hwlib6stringILj8EEEj>:
     37c:	b084      	sub	sp, #16
     37e:	e92d 41f0 	stmdb	sp!, {r4, r5, r6, r7, r8, lr}
     382:	2400      	movs	r4, #0
     384:	4605      	mov	r5, r0
     386:	a807      	add	r0, sp, #28
     388:	e880 000e 	stmia.w	r0, {r1, r2, r3}
     38c:	4f0e      	ldr	r7, [pc, #56]	; (3c8 <_ZN7MAX721912write_stringEN5hwlib6stringILj8EEEj+0x4c>)
     38e:	4e0f      	ldr	r6, [pc, #60]	; (3cc <_ZN7MAX721912write_stringEN5hwlib6stringILj8EEEj+0x50>)
     390:	9b0c      	ldr	r3, [sp, #48]	; 0x30
     392:	429c      	cmp	r4, r3
     394:	d013      	beq.n	3be <_ZN7MAX721912write_stringEN5hwlib6stringILj8EEEj+0x42>
     396:	9b07      	ldr	r3, [sp, #28]
     398:	4628      	mov	r0, r5
     39a:	429c      	cmp	r4, r3
     39c:	bf2c      	ite	cs
     39e:	4633      	movcs	r3, r6
     3a0:	9b09      	ldrcc	r3, [sp, #36]	; 0x24
     3a2:	f817 8b01 	ldrb.w	r8, [r7], #1
     3a6:	bf38      	it	cc
     3a8:	191b      	addcc	r3, r3, r4
     3aa:	7819      	ldrb	r1, [r3, #0]
     3ac:	f7ff ff48 	bl	240 <_ZN7MAX721915get_font_binaryEh>
     3b0:	4641      	mov	r1, r8
     3b2:	4602      	mov	r2, r0
     3b4:	4628      	mov	r0, r5
     3b6:	f7ff ffb2 	bl	31e <_ZN7MAX72195writeEhh>
     3ba:	3401      	adds	r4, #1
     3bc:	e7e8      	b.n	390 <_ZN7MAX721912write_stringEN5hwlib6stringILj8EEEj+0x14>
     3be:	e8bd 41f0 	ldmia.w	sp!, {r4, r5, r6, r7, r8, lr}
     3c2:	b004      	add	sp, #16
     3c4:	4770      	bx	lr
     3c6:	bf00      	nop
     3c8:	200840a0 	.word	0x200840a0
     3cc:	20084020 	.word	0x20084020

000003d0 <_ZN7MAX72195clearEv>:
     3d0:	b570      	push	{r4, r5, r6, lr}
     3d2:	4605      	mov	r5, r0
     3d4:	2400      	movs	r4, #0
     3d6:	4e05      	ldr	r6, [pc, #20]	; (3ec <_ZN7MAX72195clearEv+0x1c>)
     3d8:	2200      	movs	r2, #0
     3da:	4628      	mov	r0, r5
     3dc:	f816 1b01 	ldrb.w	r1, [r6], #1
     3e0:	3401      	adds	r4, #1
     3e2:	f7ff ff9c 	bl	31e <_ZN7MAX72195writeEhh>
     3e6:	2c08      	cmp	r4, #8
     3e8:	d1f6      	bne.n	3d8 <_ZN7MAX72195clearEv+0x8>
     3ea:	bd70      	pop	{r4, r5, r6, pc}
     3ec:	200840a0 	.word	0x200840a0

000003f0 <_ZN7MAX721913set_intensityEj>:
     3f0:	3901      	subs	r1, #1
     3f2:	b2c9      	uxtb	r1, r1
     3f4:	f441 6120 	orr.w	r1, r1, #2560	; 0xa00
     3f8:	f7ff bf30 	b.w	25c <_ZN7MAX72195writeEt>

000003fc <_ZN7MAX721916normal_operationEv>:
     3fc:	f640 41ff 	movw	r1, #3327	; 0xcff
     400:	f7ff bf2c 	b.w	25c <_ZN7MAX72195writeEt>

00000404 <_ZN7MAX721910scan_limitEj>:
     404:	b2c9      	uxtb	r1, r1
     406:	f441 6130 	orr.w	r1, r1, #2816	; 0xb00
     40a:	f7ff bf27 	b.w	25c <_ZN7MAX72195writeEt>

0000040e <_ZN7MAX72196decodeEv>:
     40e:	f44f 6110 	mov.w	r1, #2304	; 0x900
     412:	f7ff bf23 	b.w	25c <_ZN7MAX72195writeEt>

00000416 <_ZN7MAX721910initializeEv>:
     416:	b510      	push	{r4, lr}
     418:	4604      	mov	r4, r0
     41a:	2107      	movs	r1, #7
     41c:	f7ff fff2 	bl	404 <_ZN7MAX721910scan_limitEj>
     420:	4620      	mov	r0, r4
     422:	f7ff fff4 	bl	40e <_ZN7MAX72196decodeEv>
     426:	4620      	mov	r0, r4
     428:	f7ff ffe8 	bl	3fc <_ZN7MAX721916normal_operationEv>
     42c:	4620      	mov	r0, r4
     42e:	e8bd 4010 	ldmia.w	sp!, {r4, lr}
     432:	2101      	movs	r1, #1
     434:	f7ff bfdc 	b.w	3f0 <_ZN7MAX721913set_intensityEj>

00000438 <_ZN3due6pin_in4readEv>:
     438:	6843      	ldr	r3, [r0, #4]
     43a:	6bda      	ldr	r2, [r3, #60]	; 0x3c
     43c:	6883      	ldr	r3, [r0, #8]
     43e:	421a      	tst	r2, r3
     440:	bf14      	ite	ne
     442:	2001      	movne	r0, #1
     444:	2000      	moveq	r0, #0
     446:	4770      	bx	lr

00000448 <_ZN3due6pin_in7refreshEv>:
     448:	4770      	bx	lr

0000044a <_ZN3due7pin_out5writeEb>:
     44a:	e9d0 3201 	ldrd	r3, r2, [r0, #4]
     44e:	b109      	cbz	r1, 454 <_ZN3due7pin_out5writeEb+0xa>
     450:	631a      	str	r2, [r3, #48]	; 0x30
     452:	4770      	bx	lr
     454:	635a      	str	r2, [r3, #52]	; 0x34
     456:	4770      	bx	lr

00000458 <_ZN3due7pin_out5flushEv>:
     458:	4770      	bx	lr

0000045a <_ZN5hwlib7ostreamlsEc>:
     45a:	b510      	push	{r4, lr}
     45c:	4604      	mov	r4, r0
     45e:	6803      	ldr	r3, [r0, #0]
     460:	681b      	ldr	r3, [r3, #0]
     462:	4798      	blx	r3
     464:	4620      	mov	r0, r4
     466:	bd10      	pop	{r4, pc}

00000468 <_ZN5hwliblsERNS_7ostreamEPKc>:
     468:	7b83      	ldrb	r3, [r0, #14]
     46a:	b570      	push	{r4, r5, r6, lr}
     46c:	4604      	mov	r4, r0
     46e:	460e      	mov	r6, r1
     470:	b93b      	cbnz	r3, 482 <_ZN5hwliblsERNS_7ostreamEPKc+0x1a>
     472:	1e75      	subs	r5, r6, #1
     474:	f815 1f01 	ldrb.w	r1, [r5, #1]!
     478:	b191      	cbz	r1, 4a0 <_ZN5hwliblsERNS_7ostreamEPKc+0x38>
     47a:	4620      	mov	r0, r4
     47c:	f7ff ffed 	bl	45a <_ZN5hwlib7ostreamlsEc>
     480:	e7f8      	b.n	474 <_ZN5hwliblsERNS_7ostreamEPKc+0xc>
     482:	2300      	movs	r3, #0
     484:	6845      	ldr	r5, [r0, #4]
     486:	5cf2      	ldrb	r2, [r6, r3]
     488:	b10a      	cbz	r2, 48e <_ZN5hwliblsERNS_7ostreamEPKc+0x26>
     48a:	3301      	adds	r3, #1
     48c:	e7fb      	b.n	486 <_ZN5hwliblsERNS_7ostreamEPKc+0x1e>
     48e:	1aed      	subs	r5, r5, r3
     490:	2d00      	cmp	r5, #0
     492:	ddee      	ble.n	472 <_ZN5hwliblsERNS_7ostreamEPKc+0xa>
     494:	4620      	mov	r0, r4
     496:	7b21      	ldrb	r1, [r4, #12]
     498:	f7ff ffdf 	bl	45a <_ZN5hwlib7ostreamlsEc>
     49c:	3d01      	subs	r5, #1
     49e:	e7f7      	b.n	490 <_ZN5hwliblsERNS_7ostreamEPKc+0x28>
     4a0:	7ba3      	ldrb	r3, [r4, #14]
     4a2:	b96b      	cbnz	r3, 4c0 <_ZN5hwliblsERNS_7ostreamEPKc+0x58>
     4a4:	6865      	ldr	r5, [r4, #4]
     4a6:	5cf2      	ldrb	r2, [r6, r3]
     4a8:	b10a      	cbz	r2, 4ae <_ZN5hwliblsERNS_7ostreamEPKc+0x46>
     4aa:	3301      	adds	r3, #1
     4ac:	e7fb      	b.n	4a6 <_ZN5hwliblsERNS_7ostreamEPKc+0x3e>
     4ae:	1aed      	subs	r5, r5, r3
     4b0:	2d00      	cmp	r5, #0
     4b2:	dd05      	ble.n	4c0 <_ZN5hwliblsERNS_7ostreamEPKc+0x58>
     4b4:	4620      	mov	r0, r4
     4b6:	7b21      	ldrb	r1, [r4, #12]
     4b8:	f7ff ffcf 	bl	45a <_ZN5hwlib7ostreamlsEc>
     4bc:	3d01      	subs	r5, #1
     4be:	e7f7      	b.n	4b0 <_ZN5hwliblsERNS_7ostreamEPKc+0x48>
     4c0:	2300      	movs	r3, #0
     4c2:	4620      	mov	r0, r4
     4c4:	6063      	str	r3, [r4, #4]
     4c6:	bd70      	pop	{r4, r5, r6, pc}

000004c8 <_ZN5hwlib11string_base7iterateC1EPKc>:
     4c8:	2300      	movs	r3, #0
     4ca:	6041      	str	r1, [r0, #4]
     4cc:	7003      	strb	r3, [r0, #0]
     4ce:	460b      	mov	r3, r1
     4d0:	781a      	ldrb	r2, [r3, #0]
     4d2:	3101      	adds	r1, #1
     4d4:	2a00      	cmp	r2, #0
     4d6:	d1fa      	bne.n	4ce <_ZN5hwlib11string_base7iterateC1EPKc+0x6>
     4d8:	6083      	str	r3, [r0, #8]
     4da:	4770      	bx	lr

000004dc <_ZN3due6pin_inC1ENS_4pinsE>:
     4dc:	b570      	push	{r4, r5, r6, lr}
     4de:	4604      	mov	r4, r0
     4e0:	4608      	mov	r0, r1
     4e2:	460d      	mov	r5, r1
     4e4:	f7ff fe26 	bl	134 <_ZN3due8pin_infoENS_4pinsE>
     4e8:	7806      	ldrb	r6, [r0, #0]
     4ea:	4628      	mov	r0, r5
     4ec:	f7ff fe22 	bl	134 <_ZN3due8pin_infoENS_4pinsE>
     4f0:	4b06      	ldr	r3, [pc, #24]	; (50c <_ZN3due6pin_inC1ENS_4pinsE+0x30>)
     4f2:	7845      	ldrb	r5, [r0, #1]
     4f4:	6023      	str	r3, [r4, #0]
     4f6:	4630      	mov	r0, r6
     4f8:	f7ff fe2c 	bl	154 <_ZN3due14port_registersEm>
     4fc:	2301      	movs	r3, #1
     4fe:	40ab      	lsls	r3, r5
     500:	6060      	str	r0, [r4, #4]
     502:	60a3      	str	r3, [r4, #8]
     504:	6143      	str	r3, [r0, #20]
     506:	4620      	mov	r0, r4
     508:	bd70      	pop	{r4, r5, r6, pc}
     50a:	bf00      	nop
     50c:	00001464 	.word	0x00001464

00000510 <_ZN3due7pin_outC1ENS_4pinsE>:
     510:	b570      	push	{r4, r5, r6, lr}
     512:	4604      	mov	r4, r0
     514:	4608      	mov	r0, r1
     516:	460d      	mov	r5, r1
     518:	f7ff fe0c 	bl	134 <_ZN3due8pin_infoENS_4pinsE>
     51c:	7806      	ldrb	r6, [r0, #0]
     51e:	4628      	mov	r0, r5
     520:	f7ff fe08 	bl	134 <_ZN3due8pin_infoENS_4pinsE>
     524:	4b06      	ldr	r3, [pc, #24]	; (540 <_ZN3due7pin_outC1ENS_4pinsE+0x30>)
     526:	7845      	ldrb	r5, [r0, #1]
     528:	6023      	str	r3, [r4, #0]
     52a:	4630      	mov	r0, r6
     52c:	f7ff fe12 	bl	154 <_ZN3due14port_registersEm>
     530:	2301      	movs	r3, #1
     532:	40ab      	lsls	r3, r5
     534:	6060      	str	r0, [r4, #4]
     536:	60a3      	str	r3, [r4, #8]
     538:	6103      	str	r3, [r0, #16]
     53a:	4620      	mov	r0, r4
     53c:	bd70      	pop	{r4, r5, r6, pc}
     53e:	bf00      	nop
     540:	00001474 	.word	0x00001474

00000544 <_ZN4gameC1ERN5hwlib8port_outERNS0_7port_inE18StatisticsSwitchesR7MAX7219>:
     544:	b082      	sub	sp, #8
     546:	b570      	push	{r4, r5, r6, lr}
     548:	f100 0508 	add.w	r5, r0, #8
     54c:	9305      	str	r3, [sp, #20]
     54e:	ab05      	add	r3, sp, #20
     550:	4604      	mov	r4, r0
     552:	e9c0 1200 	strd	r1, r2, [r0]
     556:	cb0f      	ldmia	r3, {r0, r1, r2, r3}
     558:	e885 000f 	stmia.w	r5, {r0, r1, r2, r3}
     55c:	2300      	movs	r3, #0
     55e:	2100      	movs	r1, #0
     560:	2000      	movs	r0, #0
     562:	4a0d      	ldr	r2, [pc, #52]	; (598 <_ZN4gameC1ERN5hwlib8port_outERNS0_7port_inE18StatisticsSwitchesR7MAX7219+0x54>)
     564:	9e09      	ldr	r6, [sp, #36]	; 0x24
     566:	e9c4 2308 	strd	r2, r3, [r4, #32]
     56a:	e9c4 330a 	strd	r3, r3, [r4, #40]	; 0x28
     56e:	7723      	strb	r3, [r4, #28]
     570:	f8c4 3830 	str.w	r3, [r4, #2096]	; 0x830
     574:	f8c4 3834 	str.w	r3, [r4, #2100]	; 0x834
     578:	f604 0338 	addw	r3, r4, #2104	; 0x838
     57c:	61a6      	str	r6, [r4, #24]
     57e:	e9c3 0100 	strd	r0, r1, [r3]
     582:	4630      	mov	r0, r6
     584:	f7ff ff47 	bl	416 <_ZN7MAX721910initializeEv>
     588:	4630      	mov	r0, r6
     58a:	f7ff ff21 	bl	3d0 <_ZN7MAX72195clearEv>
     58e:	4620      	mov	r0, r4
     590:	e8bd 4070 	ldmia.w	sp!, {r4, r5, r6, lr}
     594:	b002      	add	sp, #8
     596:	4770      	bx	lr
     598:	002625a0 	.word	0x002625a0

0000059c <_ZN4game18check_menu_buttonsEv>:
     59c:	b510      	push	{r4, lr}
     59e:	4604      	mov	r4, r0
     5a0:	6880      	ldr	r0, [r0, #8]
     5a2:	6803      	ldr	r3, [r0, #0]
     5a4:	681b      	ldr	r3, [r3, #0]
     5a6:	4798      	blx	r3
     5a8:	b910      	cbnz	r0, 5b0 <_ZN4game18check_menu_buttonsEv+0x14>
     5aa:	2304      	movs	r3, #4
     5ac:	7723      	strb	r3, [r4, #28]
     5ae:	bd10      	pop	{r4, pc}
     5b0:	68e0      	ldr	r0, [r4, #12]
     5b2:	6803      	ldr	r3, [r0, #0]
     5b4:	681b      	ldr	r3, [r3, #0]
     5b6:	4798      	blx	r3
     5b8:	b908      	cbnz	r0, 5be <_ZN4game18check_menu_buttonsEv+0x22>
     5ba:	2301      	movs	r3, #1
     5bc:	e7f6      	b.n	5ac <_ZN4game18check_menu_buttonsEv+0x10>
     5be:	6920      	ldr	r0, [r4, #16]
     5c0:	6803      	ldr	r3, [r0, #0]
     5c2:	681b      	ldr	r3, [r3, #0]
     5c4:	4798      	blx	r3
     5c6:	b908      	cbnz	r0, 5cc <_ZN4game18check_menu_buttonsEv+0x30>
     5c8:	2303      	movs	r3, #3
     5ca:	e7ef      	b.n	5ac <_ZN4game18check_menu_buttonsEv+0x10>
     5cc:	6960      	ldr	r0, [r4, #20]
     5ce:	6803      	ldr	r3, [r0, #0]
     5d0:	681b      	ldr	r3, [r3, #0]
     5d2:	4798      	blx	r3
     5d4:	2800      	cmp	r0, #0
     5d6:	d1ea      	bne.n	5ae <_ZN4game18check_menu_buttonsEv+0x12>
     5d8:	2302      	movs	r3, #2
     5da:	e7e7      	b.n	5ac <_ZN4game18check_menu_buttonsEv+0x10>

000005dc <_ZN4game14show_highscoreEv>:
     5dc:	b510      	push	{r4, lr}
     5de:	4604      	mov	r4, r0
     5e0:	6a42      	ldr	r2, [r0, #36]	; 0x24
     5e2:	f100 0330 	add.w	r3, r0, #48	; 0x30
     5e6:	eb03 0282 	add.w	r2, r3, r2, lsl #2
     5ea:	4293      	cmp	r3, r2
     5ec:	d008      	beq.n	600 <_ZN4game14show_highscoreEv+0x24>
     5ee:	f853 1b04 	ldr.w	r1, [r3], #4
     5f2:	f8d4 0830 	ldr.w	r0, [r4, #2096]	; 0x830
     5f6:	4281      	cmp	r1, r0
     5f8:	d9f7      	bls.n	5ea <_ZN4game14show_highscoreEv+0xe>
     5fa:	f8c4 1830 	str.w	r1, [r4, #2096]	; 0x830
     5fe:	e7f4      	b.n	5ea <_ZN4game14show_highscoreEv+0xe>
     600:	69a0      	ldr	r0, [r4, #24]
     602:	f7ff fee5 	bl	3d0 <_ZN7MAX72195clearEv>
     606:	f8d4 1830 	ldr.w	r1, [r4, #2096]	; 0x830
     60a:	69a0      	ldr	r0, [r4, #24]
     60c:	e8bd 4010 	ldmia.w	sp!, {r4, lr}
     610:	f7ff be8a 	b.w	328 <_ZN7MAX72199write_intEj>

00000614 <_ZN5hwlib6stringILj8EEC1IA5_cEERKT_>:
     614:	b57f      	push	{r0, r1, r2, r3, r4, r5, r6, lr}
     616:	4605      	mov	r5, r0
     618:	2308      	movs	r3, #8
     61a:	f845 3b0c 	str.w	r3, [r5], #12
     61e:	2300      	movs	r3, #0
     620:	4604      	mov	r4, r0
     622:	e9c0 3501 	strd	r3, r5, [r0, #4]
     626:	a801      	add	r0, sp, #4
     628:	f7ff ff4e 	bl	4c8 <_ZN5hwlib11string_base7iterateC1EPKc>
     62c:	e9dd 3102 	ldrd	r3, r1, [sp, #8]
     630:	428b      	cmp	r3, r1
     632:	d009      	beq.n	648 <_ZN5hwlib6stringILj8EEC1IA5_cEERKT_+0x34>
     634:	6862      	ldr	r2, [r4, #4]
     636:	3301      	adds	r3, #1
     638:	2a07      	cmp	r2, #7
     63a:	bf9f      	itttt	ls
     63c:	f813 0c01 	ldrbls.w	r0, [r3, #-1]
     640:	1c56      	addls	r6, r2, #1
     642:	6066      	strls	r6, [r4, #4]
     644:	54a8      	strbls	r0, [r5, r2]
     646:	e7f3      	b.n	630 <_ZN5hwlib6stringILj8EEC1IA5_cEERKT_+0x1c>
     648:	4620      	mov	r0, r4
     64a:	b004      	add	sp, #16
     64c:	bd70      	pop	{r4, r5, r6, pc}
	...

00000650 <_ZN4game14show_game_overEv>:
     650:	e92d 41f0 	stmdb	sp!, {r4, r5, r6, r7, r8, lr}
     654:	2704      	movs	r7, #4
     656:	4605      	mov	r5, r0
     658:	b08a      	sub	sp, #40	; 0x28
     65a:	ac05      	add	r4, sp, #20
     65c:	f8d0 8018 	ldr.w	r8, [r0, #24]
     660:	4915      	ldr	r1, [pc, #84]	; (6b8 <_ZN4game14show_game_overEv+0x68>)
     662:	4620      	mov	r0, r4
     664:	f7ff ffd6 	bl	614 <_ZN5hwlib6stringILj8EEC1IA5_cEERKT_>
     668:	ae08      	add	r6, sp, #32
     66a:	9702      	str	r7, [sp, #8]
     66c:	e896 0003 	ldmia.w	r6, {r0, r1}
     670:	e88d 0003 	stmia.w	sp, {r0, r1}
     674:	4640      	mov	r0, r8
     676:	e894 000e 	ldmia.w	r4, {r1, r2, r3}
     67a:	f7ff fe7f 	bl	37c <_ZN7MAX721912write_stringEN5hwlib6stringILj8EEEj>
     67e:	f44f 7048 	mov.w	r0, #800	; 0x320
     682:	f000 fb6d 	bl	d60 <_ZN5hwlib7wait_msEi>
     686:	4620      	mov	r0, r4
     688:	490c      	ldr	r1, [pc, #48]	; (6bc <_ZN4game14show_game_overEv+0x6c>)
     68a:	f8d5 8018 	ldr.w	r8, [r5, #24]
     68e:	f7ff ffc1 	bl	614 <_ZN5hwlib6stringILj8EEC1IA5_cEERKT_>
     692:	9702      	str	r7, [sp, #8]
     694:	e896 0003 	ldmia.w	r6, {r0, r1}
     698:	e88d 0003 	stmia.w	sp, {r0, r1}
     69c:	4640      	mov	r0, r8
     69e:	e894 000e 	ldmia.w	r4, {r1, r2, r3}
     6a2:	f7ff fe6b 	bl	37c <_ZN7MAX721912write_stringEN5hwlib6stringILj8EEEj>
     6a6:	f44f 7048 	mov.w	r0, #800	; 0x320
     6aa:	f000 fb59 	bl	d60 <_ZN5hwlib7wait_msEi>
     6ae:	2300      	movs	r3, #0
     6b0:	772b      	strb	r3, [r5, #28]
     6b2:	b00a      	add	sp, #40	; 0x28
     6b4:	e8bd 81f0 	ldmia.w	sp!, {r4, r5, r6, r7, r8, pc}
     6b8:	000013fe 	.word	0x000013fe
     6bc:	00001403 	.word	0x00001403

000006c0 <_ZN5hwlib6stringILj8EEC1IA6_cEERKT_>:
     6c0:	b57f      	push	{r0, r1, r2, r3, r4, r5, r6, lr}
     6c2:	4605      	mov	r5, r0
     6c4:	2308      	movs	r3, #8
     6c6:	f845 3b0c 	str.w	r3, [r5], #12
     6ca:	2300      	movs	r3, #0
     6cc:	4604      	mov	r4, r0
     6ce:	e9c0 3501 	strd	r3, r5, [r0, #4]
     6d2:	a801      	add	r0, sp, #4
     6d4:	f7ff fef8 	bl	4c8 <_ZN5hwlib11string_base7iterateC1EPKc>
     6d8:	e9dd 3102 	ldrd	r3, r1, [sp, #8]
     6dc:	428b      	cmp	r3, r1
     6de:	d009      	beq.n	6f4 <_ZN5hwlib6stringILj8EEC1IA6_cEERKT_+0x34>
     6e0:	6862      	ldr	r2, [r4, #4]
     6e2:	3301      	adds	r3, #1
     6e4:	2a07      	cmp	r2, #7
     6e6:	bf9f      	itttt	ls
     6e8:	f813 0c01 	ldrbls.w	r0, [r3, #-1]
     6ec:	1c56      	addls	r6, r2, #1
     6ee:	6066      	strls	r6, [r4, #4]
     6f0:	54a8      	strbls	r0, [r5, r2]
     6f2:	e7f3      	b.n	6dc <_ZN5hwlib6stringILj8EEC1IA6_cEERKT_+0x1c>
     6f4:	4620      	mov	r0, r4
     6f6:	b004      	add	sp, #16
     6f8:	bd70      	pop	{r4, r5, r6, pc}
	...

000006fc <_ZN4game21average_reaction_timeEv>:
     6fc:	2300      	movs	r3, #0
     6fe:	e92d 41f0 	stmdb	sp!, {r4, r5, r6, r7, r8, lr}
     702:	461a      	mov	r2, r3
     704:	4604      	mov	r4, r0
     706:	6ac7      	ldr	r7, [r0, #44]	; 0x2c
     708:	b08c      	sub	sp, #48	; 0x30
     70a:	f500 6104 	add.w	r1, r0, #2112	; 0x840
     70e:	429f      	cmp	r7, r3
     710:	d004      	beq.n	71c <_ZN4game21average_reaction_timeEv+0x20>
     712:	f851 0b04 	ldr.w	r0, [r1], #4
     716:	3301      	adds	r3, #1
     718:	4402      	add	r2, r0
     71a:	e7f8      	b.n	70e <_ZN4game21average_reaction_timeEv+0x12>
     71c:	69a0      	ldr	r0, [r4, #24]
     71e:	fbb2 f7f7 	udiv	r7, r2, r7
     722:	f7ff fe55 	bl	3d0 <_ZN7MAX72195clearEv>
     726:	2208      	movs	r2, #8
     728:	2300      	movs	r3, #0
     72a:	4934      	ldr	r1, [pc, #208]	; (7fc <_ZN4game21average_reaction_timeEv+0x100>)
     72c:	ae0a      	add	r6, sp, #40	; 0x28
     72e:	a804      	add	r0, sp, #16
     730:	e9cd 2307 	strd	r2, r3, [sp, #28]
     734:	f8d4 8018 	ldr.w	r8, [r4, #24]
     738:	9609      	str	r6, [sp, #36]	; 0x24
     73a:	f7ff fec5 	bl	4c8 <_ZN5hwlib11string_base7iterateC1EPKc>
     73e:	e9dd 2105 	ldrd	r2, r1, [sp, #20]
     742:	428a      	cmp	r2, r1
     744:	d00b      	beq.n	75e <_ZN4game21average_reaction_timeEv+0x62>
     746:	9b08      	ldr	r3, [sp, #32]
     748:	2b07      	cmp	r3, #7
     74a:	d806      	bhi.n	75a <_ZN4game21average_reaction_timeEv+0x5e>
     74c:	1c5d      	adds	r5, r3, #1
     74e:	7810      	ldrb	r0, [r2, #0]
     750:	9508      	str	r5, [sp, #32]
     752:	ad0c      	add	r5, sp, #48	; 0x30
     754:	442b      	add	r3, r5
     756:	f803 0c08 	strb.w	r0, [r3, #-8]
     75a:	3201      	adds	r2, #1
     75c:	e7f1      	b.n	742 <_ZN4game21average_reaction_timeEv+0x46>
     75e:	2308      	movs	r3, #8
     760:	9302      	str	r3, [sp, #8]
     762:	e896 0003 	ldmia.w	r6, {r0, r1}
     766:	e88d 0003 	stmia.w	sp, {r0, r1}
     76a:	ad07      	add	r5, sp, #28
     76c:	e895 000e 	ldmia.w	r5, {r1, r2, r3}
     770:	4640      	mov	r0, r8
     772:	f7ff fe03 	bl	37c <_ZN7MAX721912write_stringEN5hwlib6stringILj8EEEj>
     776:	f44f 7048 	mov.w	r0, #800	; 0x320
     77a:	f000 faf1 	bl	d60 <_ZN5hwlib7wait_msEi>
     77e:	69a0      	ldr	r0, [r4, #24]
     780:	f7ff fe26 	bl	3d0 <_ZN7MAX72195clearEv>
     784:	4628      	mov	r0, r5
     786:	491e      	ldr	r1, [pc, #120]	; (800 <_ZN4game21average_reaction_timeEv+0x104>)
     788:	f8d4 8018 	ldr.w	r8, [r4, #24]
     78c:	f7ff ff42 	bl	614 <_ZN5hwlib6stringILj8EEC1IA5_cEERKT_>
     790:	2306      	movs	r3, #6
     792:	9302      	str	r3, [sp, #8]
     794:	e896 0003 	ldmia.w	r6, {r0, r1}
     798:	e88d 0003 	stmia.w	sp, {r0, r1}
     79c:	4640      	mov	r0, r8
     79e:	e895 000e 	ldmia.w	r5, {r1, r2, r3}
     7a2:	f7ff fdeb 	bl	37c <_ZN7MAX721912write_stringEN5hwlib6stringILj8EEEj>
     7a6:	f44f 7048 	mov.w	r0, #800	; 0x320
     7aa:	f000 fad9 	bl	d60 <_ZN5hwlib7wait_msEi>
     7ae:	69a0      	ldr	r0, [r4, #24]
     7b0:	f7ff fe0e 	bl	3d0 <_ZN7MAX72195clearEv>
     7b4:	4628      	mov	r0, r5
     7b6:	4913      	ldr	r1, [pc, #76]	; (804 <_ZN4game21average_reaction_timeEv+0x108>)
     7b8:	f8d4 8018 	ldr.w	r8, [r4, #24]
     7bc:	f7ff ff80 	bl	6c0 <_ZN5hwlib6stringILj8EEC1IA6_cEERKT_>
     7c0:	2305      	movs	r3, #5
     7c2:	9302      	str	r3, [sp, #8]
     7c4:	e896 0003 	ldmia.w	r6, {r0, r1}
     7c8:	e88d 0003 	stmia.w	sp, {r0, r1}
     7cc:	4640      	mov	r0, r8
     7ce:	e895 000e 	ldmia.w	r5, {r1, r2, r3}
     7d2:	f7ff fdd3 	bl	37c <_ZN7MAX721912write_stringEN5hwlib6stringILj8EEEj>
     7d6:	f44f 7048 	mov.w	r0, #800	; 0x320
     7da:	f000 fac1 	bl	d60 <_ZN5hwlib7wait_msEi>
     7de:	69a0      	ldr	r0, [r4, #24]
     7e0:	f7ff fdf6 	bl	3d0 <_ZN7MAX72195clearEv>
     7e4:	4639      	mov	r1, r7
     7e6:	69a0      	ldr	r0, [r4, #24]
     7e8:	f7ff fd9e 	bl	328 <_ZN7MAX72199write_intEj>
     7ec:	f44f 7048 	mov.w	r0, #800	; 0x320
     7f0:	f000 fab6 	bl	d60 <_ZN5hwlib7wait_msEi>
     7f4:	b00c      	add	sp, #48	; 0x30
     7f6:	e8bd 81f0 	ldmia.w	sp!, {r4, r5, r6, r7, r8, pc}
     7fa:	bf00      	nop
     7fc:	00001408 	.word	0x00001408
     800:	00001411 	.word	0x00001411
     804:	00001416 	.word	0x00001416

00000808 <_ZN5hwlib11string_baseC1IA7_cEEjPcRKT_>:
     808:	b5f0      	push	{r4, r5, r6, r7, lr}
     80a:	4616      	mov	r6, r2
     80c:	2200      	movs	r2, #0
     80e:	b085      	sub	sp, #20
     810:	6001      	str	r1, [r0, #0]
     812:	e9c0 2601 	strd	r2, r6, [r0, #4]
     816:	4604      	mov	r4, r0
     818:	460d      	mov	r5, r1
     81a:	a801      	add	r0, sp, #4
     81c:	4619      	mov	r1, r3
     81e:	f7ff fe53 	bl	4c8 <_ZN5hwlib11string_base7iterateC1EPKc>
     822:	e9dd 3102 	ldrd	r3, r1, [sp, #8]
     826:	428b      	cmp	r3, r1
     828:	d009      	beq.n	83e <_ZN5hwlib11string_baseC1IA7_cEEjPcRKT_+0x36>
     82a:	6862      	ldr	r2, [r4, #4]
     82c:	3301      	adds	r3, #1
     82e:	42aa      	cmp	r2, r5
     830:	bf3f      	itttt	cc
     832:	f813 0c01 	ldrbcc.w	r0, [r3, #-1]
     836:	1c57      	addcc	r7, r2, #1
     838:	6067      	strcc	r7, [r4, #4]
     83a:	54b0      	strbcc	r0, [r6, r2]
     83c:	e7f3      	b.n	826 <_ZN5hwlib11string_baseC1IA7_cEEjPcRKT_+0x1e>
     83e:	4620      	mov	r0, r4
     840:	b005      	add	sp, #20
     842:	bdf0      	pop	{r4, r5, r6, r7, pc}

00000844 <_ZN4game9show_menuEv>:
     844:	b5f0      	push	{r4, r5, r6, r7, lr}
     846:	4604      	mov	r4, r0
     848:	b08d      	sub	sp, #52	; 0x34
     84a:	f604 0538 	addw	r5, r4, #2104	; 0x838
     84e:	f000 fbb2 	bl	fb6 <_ZN5hwlib6now_usEv>
     852:	682b      	ldr	r3, [r5, #0]
     854:	f8df c148 	ldr.w	ip, [pc, #328]	; 9a0 <_ZN4game9show_menuEv+0x15c>
     858:	686a      	ldr	r2, [r5, #4]
     85a:	eb13 060c 	adds.w	r6, r3, ip
     85e:	f04f 0300 	mov.w	r3, #0
     862:	eb42 0703 	adc.w	r7, r2, r3
     866:	428f      	cmp	r7, r1
     868:	bf08      	it	eq
     86a:	4286      	cmpeq	r6, r0
     86c:	d268      	bcs.n	940 <_ZN4game9show_menuEv+0xfc>
     86e:	f000 fba2 	bl	fb6 <_ZN5hwlib6now_usEv>
     872:	e9c5 0100 	strd	r0, r1, [r5]
     876:	69a0      	ldr	r0, [r4, #24]
     878:	f7ff fdaa 	bl	3d0 <_ZN7MAX72195clearEv>
     87c:	f8d4 3834 	ldr.w	r3, [r4, #2100]	; 0x834
     880:	2b05      	cmp	r3, #5
     882:	d855      	bhi.n	930 <_ZN4game9show_menuEv+0xec>
     884:	e8df f003 	tbb	[pc, r3]
     888:	40381303 	.word	0x40381303
     88c:	7b5e      	.short	0x7b5e
     88e:	ad07      	add	r5, sp, #28
     890:	4628      	mov	r0, r5
     892:	493d      	ldr	r1, [pc, #244]	; (988 <_ZN4game9show_menuEv+0x144>)
     894:	69a6      	ldr	r6, [r4, #24]
     896:	f7ff febd 	bl	614 <_ZN5hwlib6stringILj8EEC1IA5_cEERKT_>
     89a:	2304      	movs	r3, #4
     89c:	9302      	str	r3, [sp, #8]
     89e:	ab0c      	add	r3, sp, #48	; 0x30
     8a0:	e913 0003 	ldmdb	r3, {r0, r1}
     8a4:	e88d 0003 	stmia.w	sp, {r0, r1}
     8a8:	e895 000e 	ldmia.w	r5, {r1, r2, r3}
     8ac:	e022      	b.n	8f4 <_ZN4game9show_menuEv+0xb0>
     8ae:	2108      	movs	r1, #8
     8b0:	2300      	movs	r3, #0
     8b2:	ad0a      	add	r5, sp, #40	; 0x28
     8b4:	e9cd 1307 	strd	r1, r3, [sp, #28]
     8b8:	a804      	add	r0, sp, #16
     8ba:	4934      	ldr	r1, [pc, #208]	; (98c <_ZN4game9show_menuEv+0x148>)
     8bc:	69a6      	ldr	r6, [r4, #24]
     8be:	9509      	str	r5, [sp, #36]	; 0x24
     8c0:	f7ff fe02 	bl	4c8 <_ZN5hwlib11string_base7iterateC1EPKc>
     8c4:	e9dd 2105 	ldrd	r2, r1, [sp, #20]
     8c8:	4291      	cmp	r1, r2
     8ca:	d00b      	beq.n	8e4 <_ZN4game9show_menuEv+0xa0>
     8cc:	9b08      	ldr	r3, [sp, #32]
     8ce:	2b07      	cmp	r3, #7
     8d0:	d806      	bhi.n	8e0 <_ZN4game9show_menuEv+0x9c>
     8d2:	1c5f      	adds	r7, r3, #1
     8d4:	7810      	ldrb	r0, [r2, #0]
     8d6:	9708      	str	r7, [sp, #32]
     8d8:	af0c      	add	r7, sp, #48	; 0x30
     8da:	443b      	add	r3, r7
     8dc:	f803 0c08 	strb.w	r0, [r3, #-8]
     8e0:	3201      	adds	r2, #1
     8e2:	e7f1      	b.n	8c8 <_ZN4game9show_menuEv+0x84>
     8e4:	2303      	movs	r3, #3
     8e6:	9302      	str	r3, [sp, #8]
     8e8:	e895 0003 	ldmia.w	r5, {r0, r1}
     8ec:	e88d 0003 	stmia.w	sp, {r0, r1}
     8f0:	ab07      	add	r3, sp, #28
     8f2:	cb0e      	ldmia	r3, {r1, r2, r3}
     8f4:	4630      	mov	r0, r6
     8f6:	e019      	b.n	92c <_ZN4game9show_menuEv+0xe8>
     8f8:	69a6      	ldr	r6, [r4, #24]
     8fa:	4925      	ldr	r1, [pc, #148]	; (990 <_ZN4game9show_menuEv+0x14c>)
     8fc:	ad07      	add	r5, sp, #28
     8fe:	4628      	mov	r0, r5
     900:	f7ff fede 	bl	6c0 <_ZN5hwlib6stringILj8EEC1IA6_cEERKT_>
     904:	2305      	movs	r3, #5
     906:	e7c9      	b.n	89c <_ZN4game9show_menuEv+0x58>
     908:	ad07      	add	r5, sp, #28
     90a:	ae0a      	add	r6, sp, #40	; 0x28
     90c:	4632      	mov	r2, r6
     90e:	2108      	movs	r1, #8
     910:	4b20      	ldr	r3, [pc, #128]	; (994 <_ZN4game9show_menuEv+0x150>)
     912:	4628      	mov	r0, r5
     914:	69a7      	ldr	r7, [r4, #24]
     916:	f7ff ff77 	bl	808 <_ZN5hwlib11string_baseC1IA7_cEEjPcRKT_>
     91a:	2306      	movs	r3, #6
     91c:	9302      	str	r3, [sp, #8]
     91e:	e896 0003 	ldmia.w	r6, {r0, r1}
     922:	e88d 0003 	stmia.w	sp, {r0, r1}
     926:	4638      	mov	r0, r7
     928:	e895 000e 	ldmia.w	r5, {r1, r2, r3}
     92c:	f7ff fd26 	bl	37c <_ZN7MAX721912write_stringEN5hwlib6stringILj8EEEj>
     930:	f8d4 3834 	ldr.w	r3, [r4, #2100]	; 0x834
     934:	3301      	adds	r3, #1
     936:	2b05      	cmp	r3, #5
     938:	bf88      	it	hi
     93a:	2300      	movhi	r3, #0
     93c:	f8c4 3834 	str.w	r3, [r4, #2100]	; 0x834
     940:	b00d      	add	sp, #52	; 0x34
     942:	bdf0      	pop	{r4, r5, r6, r7, pc}
     944:	2208      	movs	r2, #8
     946:	2300      	movs	r3, #0
     948:	4913      	ldr	r1, [pc, #76]	; (998 <_ZN4game9show_menuEv+0x154>)
     94a:	ad0a      	add	r5, sp, #40	; 0x28
     94c:	a804      	add	r0, sp, #16
     94e:	e9cd 2307 	strd	r2, r3, [sp, #28]
     952:	69a6      	ldr	r6, [r4, #24]
     954:	9509      	str	r5, [sp, #36]	; 0x24
     956:	f7ff fdb7 	bl	4c8 <_ZN5hwlib11string_base7iterateC1EPKc>
     95a:	e9dd 2105 	ldrd	r2, r1, [sp, #20]
     95e:	428a      	cmp	r2, r1
     960:	d00b      	beq.n	97a <_ZN4game9show_menuEv+0x136>
     962:	9b08      	ldr	r3, [sp, #32]
     964:	2b07      	cmp	r3, #7
     966:	d806      	bhi.n	976 <_ZN4game9show_menuEv+0x132>
     968:	1c5f      	adds	r7, r3, #1
     96a:	7810      	ldrb	r0, [r2, #0]
     96c:	9708      	str	r7, [sp, #32]
     96e:	af0c      	add	r7, sp, #48	; 0x30
     970:	443b      	add	r3, r7
     972:	f803 0c08 	strb.w	r0, [r3, #-8]
     976:	3201      	adds	r2, #1
     978:	e7f1      	b.n	95e <_ZN4game9show_menuEv+0x11a>
     97a:	2302      	movs	r3, #2
     97c:	e7b3      	b.n	8e6 <_ZN4game9show_menuEv+0xa2>
     97e:	69a6      	ldr	r6, [r4, #24]
     980:	4906      	ldr	r1, [pc, #24]	; (99c <_ZN4game9show_menuEv+0x158>)
     982:	ad07      	add	r5, sp, #28
     984:	e7bb      	b.n	8fe <_ZN4game9show_menuEv+0xba>
     986:	bf00      	nop
     988:	0000141c 	.word	0x0000141c
     98c:	00001421 	.word	0x00001421
     990:	00001425 	.word	0x00001425
     994:	0000142b 	.word	0x0000142b
     998:	00001432 	.word	0x00001432
     99c:	00001435 	.word	0x00001435
     9a0:	000c3500 	.word	0x000c3500

000009a4 <_ZN4game17show_times_playedEv>:
     9a4:	b5f0      	push	{r4, r5, r6, r7, lr}
     9a6:	4604      	mov	r4, r0
     9a8:	b08b      	sub	sp, #44	; 0x2c
     9aa:	ad05      	add	r5, sp, #20
     9ac:	6980      	ldr	r0, [r0, #24]
     9ae:	f7ff fd0f 	bl	3d0 <_ZN7MAX72195clearEv>
     9b2:	4628      	mov	r0, r5
     9b4:	491b      	ldr	r1, [pc, #108]	; (a24 <_ZN4game17show_times_playedEv+0x80>)
     9b6:	69a7      	ldr	r7, [r4, #24]
     9b8:	f7ff fe82 	bl	6c0 <_ZN5hwlib6stringILj8EEC1IA6_cEERKT_>
     9bc:	2305      	movs	r3, #5
     9be:	ae08      	add	r6, sp, #32
     9c0:	9302      	str	r3, [sp, #8]
     9c2:	e896 0003 	ldmia.w	r6, {r0, r1}
     9c6:	e88d 0003 	stmia.w	sp, {r0, r1}
     9ca:	4638      	mov	r0, r7
     9cc:	e895 000e 	ldmia.w	r5, {r1, r2, r3}
     9d0:	f7ff fcd4 	bl	37c <_ZN7MAX721912write_stringEN5hwlib6stringILj8EEEj>
     9d4:	f44f 7048 	mov.w	r0, #800	; 0x320
     9d8:	f000 f9c2 	bl	d60 <_ZN5hwlib7wait_msEi>
     9dc:	4632      	mov	r2, r6
     9de:	2108      	movs	r1, #8
     9e0:	4628      	mov	r0, r5
     9e2:	4b11      	ldr	r3, [pc, #68]	; (a28 <_ZN4game17show_times_playedEv+0x84>)
     9e4:	69a7      	ldr	r7, [r4, #24]
     9e6:	f7ff ff0f 	bl	808 <_ZN5hwlib11string_baseC1IA7_cEEjPcRKT_>
     9ea:	2306      	movs	r3, #6
     9ec:	9302      	str	r3, [sp, #8]
     9ee:	e896 0003 	ldmia.w	r6, {r0, r1}
     9f2:	e88d 0003 	stmia.w	sp, {r0, r1}
     9f6:	4638      	mov	r0, r7
     9f8:	e895 000e 	ldmia.w	r5, {r1, r2, r3}
     9fc:	f7ff fcbe 	bl	37c <_ZN7MAX721912write_stringEN5hwlib6stringILj8EEEj>
     a00:	f44f 7048 	mov.w	r0, #800	; 0x320
     a04:	f000 f9ac 	bl	d60 <_ZN5hwlib7wait_msEi>
     a08:	69a0      	ldr	r0, [r4, #24]
     a0a:	f7ff fce1 	bl	3d0 <_ZN7MAX72195clearEv>
     a0e:	6a61      	ldr	r1, [r4, #36]	; 0x24
     a10:	69a0      	ldr	r0, [r4, #24]
     a12:	f7ff fc89 	bl	328 <_ZN7MAX72199write_intEj>
     a16:	f44f 7048 	mov.w	r0, #800	; 0x320
     a1a:	f000 f9a1 	bl	d60 <_ZN5hwlib7wait_msEi>
     a1e:	b00b      	add	sp, #44	; 0x2c
     a20:	bdf0      	pop	{r4, r5, r6, r7, pc}
     a22:	bf00      	nop
     a24:	0000143b 	.word	0x0000143b
     a28:	00001441 	.word	0x00001441

00000a2c <_ZN4game3runEv>:
     a2c:	4604      	mov	r4, r0
     a2e:	b580      	push	{r7, lr}
     a30:	4e1b      	ldr	r6, [pc, #108]	; (aa0 <_ZN4game3runEv+0x74>)
     a32:	4d1c      	ldr	r5, [pc, #112]	; (aa4 <_ZN4game3runEv+0x78>)
     a34:	4f1c      	ldr	r7, [pc, #112]	; (aa8 <_ZN4game3runEv+0x7c>)
     a36:	7f23      	ldrb	r3, [r4, #28]
     a38:	2b05      	cmp	r3, #5
     a3a:	d8fd      	bhi.n	a38 <_ZN4game3runEv+0xc>
     a3c:	e8df f003 	tbb	[pc, r3]
     a40:	1f1b1103 	.word	0x1f1b1103
     a44:	2c2a      	.short	0x2c2a
     a46:	4620      	mov	r0, r4
     a48:	f7ff fefc 	bl	844 <_ZN4game9show_menuEv>
     a4c:	4620      	mov	r0, r4
     a4e:	f7ff fda5 	bl	59c <_ZN4game18check_menu_buttonsEv>
     a52:	4916      	ldr	r1, [pc, #88]	; (aac <_ZN4game3runEv+0x80>)
     a54:	4628      	mov	r0, r5
     a56:	f7ff fd07 	bl	468 <_ZN5hwliblsERNS_7ostreamEPKc>
     a5a:	210a      	movs	r1, #10
     a5c:	f7ff fcfd 	bl	45a <_ZN5hwlib7ostreamlsEc>
     a60:	e7e9      	b.n	a36 <_ZN4game3runEv+0xa>
     a62:	4620      	mov	r0, r4
     a64:	f7ff fdba 	bl	5dc <_ZN4game14show_highscoreEv>
     a68:	4620      	mov	r0, r4
     a6a:	f7ff fd97 	bl	59c <_ZN4game18check_menu_buttonsEv>
     a6e:	200a      	movs	r0, #10
     a70:	f000 f976 	bl	d60 <_ZN5hwlib7wait_msEi>
     a74:	e7df      	b.n	a36 <_ZN4game3runEv+0xa>
     a76:	4620      	mov	r0, r4
     a78:	f7ff fe40 	bl	6fc <_ZN4game21average_reaction_timeEv>
     a7c:	e7f4      	b.n	a68 <_ZN4game3runEv+0x3c>
     a7e:	4620      	mov	r0, r4
     a80:	f7ff ff90 	bl	9a4 <_ZN4game17show_times_playedEv>
     a84:	4620      	mov	r0, r4
     a86:	f7ff fd89 	bl	59c <_ZN4game18check_menu_buttonsEv>
     a8a:	200a      	movs	r0, #10
     a8c:	f000 f968 	bl	d60 <_ZN5hwlib7wait_msEi>
     a90:	4639      	mov	r1, r7
     a92:	e7df      	b.n	a54 <_ZN4game3runEv+0x28>
     a94:	4631      	mov	r1, r6
     a96:	e7dd      	b.n	a54 <_ZN4game3runEv+0x28>
     a98:	4620      	mov	r0, r4
     a9a:	f7ff fdd9 	bl	650 <_ZN4game14show_game_overEv>
     a9e:	e7e6      	b.n	a6e <_ZN4game3runEv+0x42>
     aa0:	00001453 	.word	0x00001453
     aa4:	200840b8 	.word	0x200840b8
     aa8:	0000144d 	.word	0x0000144d
     aac:	00001448 	.word	0x00001448

00000ab0 <main>:
     ab0:	e92d 4880 	stmdb	sp!, {r7, fp, lr}
     ab4:	f5ad 5d90 	sub.w	sp, sp, #4608	; 0x1200
     ab8:	b081      	sub	sp, #4
     aba:	f640 30b8 	movw	r0, #3000	; 0xbb8
     abe:	f000 f94f 	bl	d60 <_ZN5hwlib7wait_msEi>
     ac2:	2131      	movs	r1, #49	; 0x31
     ac4:	a811      	add	r0, sp, #68	; 0x44
     ac6:	f7ff fd23 	bl	510 <_ZN3due7pin_outC1ENS_4pinsE>
     aca:	2133      	movs	r1, #51	; 0x33
     acc:	a814      	add	r0, sp, #80	; 0x50
     ace:	f7ff fd1f 	bl	510 <_ZN3due7pin_outC1ENS_4pinsE>
     ad2:	ab17      	add	r3, sp, #92	; 0x5c
     ad4:	4618      	mov	r0, r3
     ad6:	2135      	movs	r1, #53	; 0x35
     ad8:	930e      	str	r3, [sp, #56]	; 0x38
     ada:	f7ff fd19 	bl	510 <_ZN3due7pin_outC1ENS_4pinsE>
     ade:	210e      	movs	r1, #14
     ae0:	a81a      	add	r0, sp, #104	; 0x68
     ae2:	f7ff fd15 	bl	510 <_ZN3due7pin_outC1ENS_4pinsE>
     ae6:	2103      	movs	r1, #3
     ae8:	a81d      	add	r0, sp, #116	; 0x74
     aea:	f7ff fd11 	bl	510 <_ZN3due7pin_outC1ENS_4pinsE>
     aee:	f10d 098c 	add.w	r9, sp, #140	; 0x8c
     af2:	2105      	movs	r1, #5
     af4:	a820      	add	r0, sp, #128	; 0x80
     af6:	f7ff fd0b 	bl	510 <_ZN3due7pin_outC1ENS_4pinsE>
     afa:	ac26      	add	r4, sp, #152	; 0x98
     afc:	2107      	movs	r1, #7
     afe:	4648      	mov	r0, r9
     b00:	f7ff fd06 	bl	510 <_ZN3due7pin_outC1ENS_4pinsE>
     b04:	2109      	movs	r1, #9
     b06:	4620      	mov	r0, r4
     b08:	f7ff fd02 	bl	510 <_ZN3due7pin_outC1ENS_4pinsE>
     b0c:	210f      	movs	r1, #15
     b0e:	a829      	add	r0, sp, #164	; 0xa4
     b10:	f7ff fce4 	bl	4dc <_ZN3due6pin_inC1ENS_4pinsE>
     b14:	2102      	movs	r1, #2
     b16:	a82c      	add	r0, sp, #176	; 0xb0
     b18:	f7ff fce0 	bl	4dc <_ZN3due6pin_inC1ENS_4pinsE>
     b1c:	ab2f      	add	r3, sp, #188	; 0xbc
     b1e:	4618      	mov	r0, r3
     b20:	ae38      	add	r6, sp, #224	; 0xe0
     b22:	2104      	movs	r1, #4
     b24:	af32      	add	r7, sp, #200	; 0xc8
     b26:	930f      	str	r3, [sp, #60]	; 0x3c
     b28:	f1a6 080c 	sub.w	r8, r6, #12
     b2c:	f7ff fcd6 	bl	4dc <_ZN3due6pin_inC1ENS_4pinsE>
     b30:	2106      	movs	r1, #6
     b32:	4638      	mov	r0, r7
     b34:	f7ff fcd2 	bl	4dc <_ZN3due6pin_inC1ENS_4pinsE>
     b38:	2108      	movs	r1, #8
     b3a:	4640      	mov	r0, r8
     b3c:	f7ff fcce 	bl	4dc <_ZN3due6pin_inC1ENS_4pinsE>
     b40:	f10d 0bec 	add.w	fp, sp, #236	; 0xec
     b44:	210a      	movs	r1, #10
     b46:	4630      	mov	r0, r6
     b48:	f7ff fcc8 	bl	4dc <_ZN3due6pin_inC1ENS_4pinsE>
     b4c:	ad3e      	add	r5, sp, #248	; 0xf8
     b4e:	210b      	movs	r1, #11
     b50:	4658      	mov	r0, fp
     b52:	f7ff fcc3 	bl	4dc <_ZN3due6pin_inC1ENS_4pinsE>
     b56:	f50d 7a82 	add.w	sl, sp, #260	; 0x104
     b5a:	210c      	movs	r1, #12
     b5c:	4628      	mov	r0, r5
     b5e:	f7ff fcbd 	bl	4dc <_ZN3due6pin_inC1ENS_4pinsE>
     b62:	210d      	movs	r1, #13
     b64:	4650      	mov	r0, sl
     b66:	f7ff fcb9 	bl	4dc <_ZN3due6pin_inC1ENS_4pinsE>
     b6a:	9b0e      	ldr	r3, [sp, #56]	; 0x38
     b6c:	aa14      	add	r2, sp, #80	; 0x50
     b6e:	a911      	add	r1, sp, #68	; 0x44
     b70:	a844      	add	r0, sp, #272	; 0x110
     b72:	f7ff fb4f 	bl	214 <_ZN7MAX7219C1ERN3due7pin_outES2_S2_>
     b76:	4b1e      	ldr	r3, [pc, #120]	; (bf0 <main+0x140>)
     b78:	aa1d      	add	r2, sp, #116	; 0x74
     b7a:	e9cd 330b 	strd	r3, r3, [sp, #44]	; 0x2c
     b7e:	e9cd 3309 	strd	r3, r3, [sp, #36]	; 0x24
     b82:	e9cd 3307 	strd	r3, r3, [sp, #28]
     b86:	e9cd 3305 	strd	r3, r3, [sp, #20]
     b8a:	e9cd 3303 	strd	r3, r3, [sp, #12]
     b8e:	e9cd 4301 	strd	r4, r3, [sp, #4]
     b92:	a91a      	add	r1, sp, #104	; 0x68
     b94:	ab20      	add	r3, sp, #128	; 0x80
     b96:	a84c      	add	r0, sp, #304	; 0x130
     b98:	f8cd 9000 	str.w	r9, [sp]
     b9c:	e9cd 6b48 	strd	r6, fp, [sp, #288]	; 0x120
     ba0:	e9cd 5a4a 	strd	r5, sl, [sp, #296]	; 0x128
     ba4:	f000 f95a 	bl	e5c <_ZN5hwlib13port_out_fromERNS_7pin_outES1_S1_S1_S1_S1_S1_S1_S1_S1_S1_S1_S1_S1_S1_S1_>
     ba8:	4b12      	ldr	r3, [pc, #72]	; (bf4 <main+0x144>)
     baa:	aa2c      	add	r2, sp, #176	; 0xb0
     bac:	e9cd 330b 	strd	r3, r3, [sp, #44]	; 0x2c
     bb0:	e9cd 3309 	strd	r3, r3, [sp, #36]	; 0x24
     bb4:	e9cd 3307 	strd	r3, r3, [sp, #28]
     bb8:	e9cd 3305 	strd	r3, r3, [sp, #20]
     bbc:	e9cd 3303 	strd	r3, r3, [sp, #12]
     bc0:	e9cd 8301 	strd	r8, r3, [sp, #4]
     bc4:	a929      	add	r1, sp, #164	; 0xa4
     bc6:	9b0f      	ldr	r3, [sp, #60]	; 0x3c
     bc8:	a85e      	add	r0, sp, #376	; 0x178
     bca:	9700      	str	r7, [sp, #0]
     bcc:	f000 f97a 	bl	ec4 <_ZN5hwlib12port_in_fromERNS_6pin_inES1_S1_S1_S1_S1_S1_S1_S1_S1_S1_S1_S1_S1_S1_S1_>
     bd0:	ab44      	add	r3, sp, #272	; 0x110
     bd2:	9303      	str	r3, [sp, #12]
     bd4:	ab49      	add	r3, sp, #292	; 0x124
     bd6:	e893 0007 	ldmia.w	r3, {r0, r1, r2}
     bda:	9b48      	ldr	r3, [sp, #288]	; 0x120
     bdc:	e88d 0007 	stmia.w	sp, {r0, r1, r2}
     be0:	aa5e      	add	r2, sp, #376	; 0x178
     be2:	a94c      	add	r1, sp, #304	; 0x130
     be4:	a870      	add	r0, sp, #448	; 0x1c0
     be6:	f7ff fcad 	bl	544 <_ZN4gameC1ERN5hwlib8port_outERNS0_7port_inE18StatisticsSwitchesR7MAX7219>
     bea:	a870      	add	r0, sp, #448	; 0x1c0
     bec:	f7ff ff1e 	bl	a2c <_ZN4game3runEv>
     bf0:	200840b4 	.word	0x200840b4
     bf4:	200840b0 	.word	0x200840b0

00000bf8 <switch_from_to>:
     bf8:	b5f0      	push	{r4, r5, r6, r7, lr}
     bfa:	4642      	mov	r2, r8
     bfc:	464b      	mov	r3, r9
     bfe:	4654      	mov	r4, sl
     c00:	465d      	mov	r5, fp
     c02:	4666      	mov	r6, ip
     c04:	b47c      	push	{r2, r3, r4, r5, r6}
     c06:	466a      	mov	r2, sp
     c08:	6002      	str	r2, [r0, #0]
     c0a:	468d      	mov	sp, r1
     c0c:	bc7c      	pop	{r2, r3, r4, r5, r6}
     c0e:	46b4      	mov	ip, r6
     c10:	46ab      	mov	fp, r5
     c12:	46a2      	mov	sl, r4
     c14:	4699      	mov	r9, r3
     c16:	4690      	mov	r8, r2
     c18:	bdf0      	pop	{r4, r5, r6, r7, pc}
     c1a:	46c0      	nop			; (mov r8, r8)

00000c1c <_ZN4rtos9task_base7releaseEv>:
     c1c:	4b05      	ldr	r3, [pc, #20]	; (c34 <_ZN4rtos9task_base7releaseEv+0x18>)
     c1e:	781b      	ldrb	r3, [r3, #0]
     c20:	b133      	cbz	r3, c30 <_ZN4rtos9task_base7releaseEv+0x14>
     c22:	4a05      	ldr	r2, [pc, #20]	; (c38 <_ZN4rtos9task_base7releaseEv+0x1c>)
     c24:	4b05      	ldr	r3, [pc, #20]	; (c3c <_ZN4rtos9task_base7releaseEv+0x20>)
     c26:	6810      	ldr	r0, [r2, #0]
     c28:	6819      	ldr	r1, [r3, #0]
     c2a:	6013      	str	r3, [r2, #0]
     c2c:	f7ff bfe4 	b.w	bf8 <switch_from_to>
     c30:	4770      	bx	lr
     c32:	bf00      	nop
     c34:	20084018 	.word	0x20084018
     c38:	200840a8 	.word	0x200840a8
     c3c:	20084010 	.word	0x20084010

00000c40 <_ZN4rtos9task_base5blockEv>:
     c40:	b508      	push	{r3, lr}
     c42:	4b14      	ldr	r3, [pc, #80]	; (c94 <_ZN4rtos9task_base5blockEv+0x54>)
     c44:	781b      	ldrb	r3, [r3, #0]
     c46:	b31b      	cbz	r3, c90 <_ZN4rtos9task_base5blockEv+0x50>
     c48:	4b13      	ldr	r3, [pc, #76]	; (c98 <_ZN4rtos9task_base5blockEv+0x58>)
     c4a:	681b      	ldr	r3, [r3, #0]
     c4c:	4283      	cmp	r3, r0
     c4e:	d00a      	beq.n	c66 <_ZN4rtos9task_base5blockEv+0x26>
     c50:	4912      	ldr	r1, [pc, #72]	; (c9c <_ZN4rtos9task_base5blockEv+0x5c>)
     c52:	4813      	ldr	r0, [pc, #76]	; (ca0 <_ZN4rtos9task_base5blockEv+0x60>)
     c54:	f7ff fc08 	bl	468 <_ZN5hwliblsERNS_7ostreamEPKc>
     c58:	4912      	ldr	r1, [pc, #72]	; (ca4 <_ZN4rtos9task_base5blockEv+0x64>)
     c5a:	f7ff fc05 	bl	468 <_ZN5hwliblsERNS_7ostreamEPKc>
     c5e:	4912      	ldr	r1, [pc, #72]	; (ca8 <_ZN4rtos9task_base5blockEv+0x68>)
     c60:	f7ff fc02 	bl	468 <_ZN5hwliblsERNS_7ostreamEPKc>
     c64:	e7fe      	b.n	c64 <_ZN4rtos9task_base5blockEv+0x24>
     c66:	7a5a      	ldrb	r2, [r3, #9]
     c68:	b93a      	cbnz	r2, c7a <_ZN4rtos9task_base5blockEv+0x3a>
     c6a:	7a1a      	ldrb	r2, [r3, #8]
     c6c:	b92a      	cbnz	r2, c7a <_ZN4rtos9task_base5blockEv+0x3a>
     c6e:	2201      	movs	r2, #1
     c70:	721a      	strb	r2, [r3, #8]
     c72:	e8bd 4008 	ldmia.w	sp!, {r3, lr}
     c76:	f7ff bfd1 	b.w	c1c <_ZN4rtos9task_base7releaseEv>
     c7a:	4908      	ldr	r1, [pc, #32]	; (c9c <_ZN4rtos9task_base5blockEv+0x5c>)
     c7c:	4808      	ldr	r0, [pc, #32]	; (ca0 <_ZN4rtos9task_base5blockEv+0x60>)
     c7e:	f7ff fbf3 	bl	468 <_ZN5hwliblsERNS_7ostreamEPKc>
     c82:	490a      	ldr	r1, [pc, #40]	; (cac <_ZN4rtos9task_base5blockEv+0x6c>)
     c84:	f7ff fbf0 	bl	468 <_ZN5hwliblsERNS_7ostreamEPKc>
     c88:	4907      	ldr	r1, [pc, #28]	; (ca8 <_ZN4rtos9task_base5blockEv+0x68>)
     c8a:	f7ff fbed 	bl	468 <_ZN5hwliblsERNS_7ostreamEPKc>
     c8e:	e7fe      	b.n	c8e <_ZN4rtos9task_base5blockEv+0x4e>
     c90:	bd08      	pop	{r3, pc}
     c92:	bf00      	nop
     c94:	20084018 	.word	0x20084018
     c98:	20084014 	.word	0x20084014
     c9c:	0000147c 	.word	0x0000147c
     ca0:	200840b8 	.word	0x200840b8
     ca4:	000014b1 	.word	0x000014b1
     ca8:	000014af 	.word	0x000014af
     cac:	000014cc 	.word	0x000014cc

00000cb0 <_ZN4rtos12waitable_set4waitEj>:
     cb0:	b5f8      	push	{r3, r4, r5, r6, r7, lr}
     cb2:	4605      	mov	r5, r0
     cb4:	460c      	mov	r4, r1
     cb6:	4616      	mov	r6, r2
     cb8:	2700      	movs	r7, #0
     cba:	2300      	movs	r3, #0
     cbc:	68e0      	ldr	r0, [r4, #12]
     cbe:	4298      	cmp	r0, r3
     cc0:	d01f      	beq.n	d02 <_ZN4rtos12waitable_set4waitEj+0x52>
     cc2:	6861      	ldr	r1, [r4, #4]
     cc4:	ea01 0206 	and.w	r2, r1, r6
     cc8:	40da      	lsrs	r2, r3
     cca:	07d2      	lsls	r2, r2, #31
     ccc:	d517      	bpl.n	cfe <_ZN4rtos12waitable_set4waitEj+0x4e>
     cce:	2201      	movs	r2, #1
     cd0:	409a      	lsls	r2, r3
     cd2:	4b0f      	ldr	r3, [pc, #60]	; (d10 <_ZN4rtos12waitable_set4waitEj+0x60>)
     cd4:	ea21 0102 	bic.w	r1, r1, r2
     cd8:	681b      	ldr	r3, [r3, #0]
     cda:	6820      	ldr	r0, [r4, #0]
     cdc:	6061      	str	r1, [r4, #4]
     cde:	b143      	cbz	r3, cf2 <_ZN4rtos12waitable_set4waitEj+0x42>
     ce0:	6859      	ldr	r1, [r3, #4]
     ce2:	4281      	cmp	r1, r0
     ce4:	d109      	bne.n	cfa <_ZN4rtos12waitable_set4waitEj+0x4a>
     ce6:	6899      	ldr	r1, [r3, #8]
     ce8:	428a      	cmp	r2, r1
     cea:	d106      	bne.n	cfa <_ZN4rtos12waitable_set4waitEj+0x4a>
     cec:	6999      	ldr	r1, [r3, #24]
     cee:	3101      	adds	r1, #1
     cf0:	6199      	str	r1, [r3, #24]
     cf2:	e9c5 0200 	strd	r0, r2, [r5]
     cf6:	4628      	mov	r0, r5
     cf8:	bdf8      	pop	{r3, r4, r5, r6, r7, pc}
     cfa:	691b      	ldr	r3, [r3, #16]
     cfc:	e7ef      	b.n	cde <_ZN4rtos12waitable_set4waitEj+0x2e>
     cfe:	3301      	adds	r3, #1
     d00:	e7dd      	b.n	cbe <_ZN4rtos12waitable_set4waitEj+0xe>
     d02:	6820      	ldr	r0, [r4, #0]
     d04:	60a6      	str	r6, [r4, #8]
     d06:	f7ff ff9b 	bl	c40 <_ZN4rtos9task_base5blockEv>
     d0a:	60a7      	str	r7, [r4, #8]
     d0c:	e7d5      	b.n	cba <_ZN4rtos12waitable_set4waitEj+0xa>
     d0e:	bf00      	nop
     d10:	2008401c 	.word	0x2008401c

00000d14 <_ZN5hwlib7wait_usEi>:
     d14:	b507      	push	{r0, r1, r2, lr}
     d16:	4a0c      	ldr	r2, [pc, #48]	; (d48 <_ZN5hwlib7wait_usEi+0x34>)
     d18:	7812      	ldrb	r2, [r2, #0]
     d1a:	b17a      	cbz	r2, d3c <_ZN5hwlib7wait_usEi+0x28>
     d1c:	2300      	movs	r3, #0
     d1e:	4a0b      	ldr	r2, [pc, #44]	; (d4c <_ZN5hwlib7wait_usEi+0x38>)
     d20:	6811      	ldr	r1, [r2, #0]
     d22:	6d0a      	ldr	r2, [r1, #80]	; 0x50
     d24:	6408      	str	r0, [r1, #64]	; 0x40
     d26:	3201      	adds	r2, #1
     d28:	650a      	str	r2, [r1, #80]	; 0x50
     d2a:	644b      	str	r3, [r1, #68]	; 0x44
     d2c:	6b0a      	ldr	r2, [r1, #48]	; 0x30
     d2e:	4668      	mov	r0, sp
     d30:	3114      	adds	r1, #20
     d32:	f7ff ffbd 	bl	cb0 <_ZN4rtos12waitable_set4waitEj>
     d36:	b003      	add	sp, #12
     d38:	f85d fb04 	ldr.w	pc, [sp], #4
     d3c:	b003      	add	sp, #12
     d3e:	f85d eb04 	ldr.w	lr, [sp], #4
     d42:	f000 b946 	b.w	fd2 <_ZN5hwlib12wait_us_busyEi>
     d46:	bf00      	nop
     d48:	20084018 	.word	0x20084018
     d4c:	20084014 	.word	0x20084014

00000d50 <_ZN5hwlib7wait_nsEi>:
     d50:	f44f 737a 	mov.w	r3, #1000	; 0x3e8
     d54:	f200 30e7 	addw	r0, r0, #999	; 0x3e7
     d58:	fb90 f0f3 	sdiv	r0, r0, r3
     d5c:	f7ff bfda 	b.w	d14 <_ZN5hwlib7wait_usEi>

00000d60 <_ZN5hwlib7wait_msEi>:
     d60:	b510      	push	{r4, lr}
     d62:	4604      	mov	r4, r0
     d64:	2c00      	cmp	r4, #0
     d66:	dd05      	ble.n	d74 <_ZN5hwlib7wait_msEi+0x14>
     d68:	f44f 707a 	mov.w	r0, #1000	; 0x3e8
     d6c:	f7ff ffd2 	bl	d14 <_ZN5hwlib7wait_usEi>
     d70:	3c01      	subs	r4, #1
     d72:	e7f7      	b.n	d64 <_ZN5hwlib7wait_msEi+0x4>
     d74:	bd10      	pop	{r4, pc}

00000d76 <_ZN5hwlib14pin_in_dummy_t4readEv>:
     d76:	2000      	movs	r0, #0
     d78:	4770      	bx	lr

00000d7a <_ZN5hwlib14pin_in_dummy_t7refreshEv>:
     d7a:	4770      	bx	lr

00000d7c <_ZN5hwlib15pin_out_dummy_t5writeEb>:
     d7c:	4770      	bx	lr

00000d7e <_ZN5hwlib15pin_out_dummy_t5flushEv>:
     d7e:	4770      	bx	lr

00000d80 <_ZN5hwlib19port_in_from_pins_t14number_of_pinsEv>:
     d80:	6840      	ldr	r0, [r0, #4]
     d82:	4770      	bx	lr

00000d84 <_ZN5hwlib19port_in_from_pins_t4readEv>:
     d84:	b570      	push	{r4, r5, r6, lr}
     d86:	2600      	movs	r6, #0
     d88:	6844      	ldr	r4, [r0, #4]
     d8a:	f100 0508 	add.w	r5, r0, #8
     d8e:	3c01      	subs	r4, #1
     d90:	2c00      	cmp	r4, #0
     d92:	db0a      	blt.n	daa <_ZN5hwlib19port_in_from_pins_t4readEv+0x26>
     d94:	f855 0024 	ldr.w	r0, [r5, r4, lsl #2]
     d98:	0076      	lsls	r6, r6, #1
     d9a:	6803      	ldr	r3, [r0, #0]
     d9c:	681b      	ldr	r3, [r3, #0]
     d9e:	4798      	blx	r3
     da0:	b108      	cbz	r0, da6 <_ZN5hwlib19port_in_from_pins_t4readEv+0x22>
     da2:	f046 0601 	orr.w	r6, r6, #1
     da6:	3c01      	subs	r4, #1
     da8:	e7f2      	b.n	d90 <_ZN5hwlib19port_in_from_pins_t4readEv+0xc>
     daa:	4630      	mov	r0, r6
     dac:	bd70      	pop	{r4, r5, r6, pc}

00000dae <_ZN5hwlib19port_in_from_pins_t7refreshEv>:
     dae:	b570      	push	{r4, r5, r6, lr}
     db0:	4604      	mov	r4, r0
     db2:	2500      	movs	r5, #0
     db4:	f100 0608 	add.w	r6, r0, #8
     db8:	6863      	ldr	r3, [r4, #4]
     dba:	42ab      	cmp	r3, r5
     dbc:	d906      	bls.n	dcc <_ZN5hwlib19port_in_from_pins_t7refreshEv+0x1e>
     dbe:	f856 0b04 	ldr.w	r0, [r6], #4
     dc2:	3501      	adds	r5, #1
     dc4:	6803      	ldr	r3, [r0, #0]
     dc6:	685b      	ldr	r3, [r3, #4]
     dc8:	4798      	blx	r3
     dca:	e7f5      	b.n	db8 <_ZN5hwlib19port_in_from_pins_t7refreshEv+0xa>
     dcc:	bd70      	pop	{r4, r5, r6, pc}

00000dce <_ZN5hwlib20port_out_from_pins_t14number_of_pinsEv>:
     dce:	6840      	ldr	r0, [r0, #4]
     dd0:	4770      	bx	lr

00000dd2 <_ZN5hwlib20port_out_from_pins_t5writeEj>:
     dd2:	b570      	push	{r4, r5, r6, lr}
     dd4:	2301      	movs	r3, #1
     dd6:	4605      	mov	r5, r0
     dd8:	460c      	mov	r4, r1
     dda:	686a      	ldr	r2, [r5, #4]
     ddc:	1c5e      	adds	r6, r3, #1
     dde:	3b01      	subs	r3, #1
     de0:	429a      	cmp	r2, r3
     de2:	d909      	bls.n	df8 <_ZN5hwlib20port_out_from_pins_t5writeEj+0x26>
     de4:	f855 0026 	ldr.w	r0, [r5, r6, lsl #2]
     de8:	f004 0101 	and.w	r1, r4, #1
     dec:	6803      	ldr	r3, [r0, #0]
     dee:	0864      	lsrs	r4, r4, #1
     df0:	681b      	ldr	r3, [r3, #0]
     df2:	4798      	blx	r3
     df4:	4633      	mov	r3, r6
     df6:	e7f0      	b.n	dda <_ZN5hwlib20port_out_from_pins_t5writeEj+0x8>
     df8:	bd70      	pop	{r4, r5, r6, pc}

00000dfa <_ZN5hwlib20port_out_from_pins_t5flushEv>:
     dfa:	b570      	push	{r4, r5, r6, lr}
     dfc:	4604      	mov	r4, r0
     dfe:	2500      	movs	r5, #0
     e00:	f100 0608 	add.w	r6, r0, #8
     e04:	6863      	ldr	r3, [r4, #4]
     e06:	42ab      	cmp	r3, r5
     e08:	d906      	bls.n	e18 <_ZN5hwlib20port_out_from_pins_t5flushEv+0x1e>
     e0a:	f856 0b04 	ldr.w	r0, [r6], #4
     e0e:	3501      	adds	r5, #1
     e10:	6803      	ldr	r3, [r0, #0]
     e12:	685b      	ldr	r3, [r3, #4]
     e14:	4798      	blx	r3
     e16:	e7f5      	b.n	e04 <_ZN5hwlib20port_out_from_pins_t5flushEv+0xa>
     e18:	bd70      	pop	{r4, r5, r6, pc}

00000e1a <_ZN5hwlib20cout_using_uart_putc5flushEv>:
     e1a:	4770      	bx	lr

00000e1c <_ZN5hwlib5panicEPKcj>:
     e1c:	e7fe      	b.n	e1c <_ZN5hwlib5panicEPKcj>
	...

00000e20 <_ZN5hwlib15background_base18do_background_workEv>:
     e20:	b538      	push	{r3, r4, r5, lr}
     e22:	4d0b      	ldr	r5, [pc, #44]	; (e50 <_ZN5hwlib15background_base18do_background_workEv+0x30>)
     e24:	782b      	ldrb	r3, [r5, #0]
     e26:	b98b      	cbnz	r3, e4c <_ZN5hwlib15background_base18do_background_workEv+0x2c>
     e28:	4c0a      	ldr	r4, [pc, #40]	; (e54 <_ZN5hwlib15background_base18do_background_workEv+0x34>)
     e2a:	6823      	ldr	r3, [r4, #0]
     e2c:	b913      	cbnz	r3, e34 <_ZN5hwlib15background_base18do_background_workEv+0x14>
     e2e:	4b0a      	ldr	r3, [pc, #40]	; (e58 <_ZN5hwlib15background_base18do_background_workEv+0x38>)
     e30:	681b      	ldr	r3, [r3, #0]
     e32:	6023      	str	r3, [r4, #0]
     e34:	6820      	ldr	r0, [r4, #0]
     e36:	b148      	cbz	r0, e4c <_ZN5hwlib15background_base18do_background_workEv+0x2c>
     e38:	2301      	movs	r3, #1
     e3a:	702b      	strb	r3, [r5, #0]
     e3c:	6803      	ldr	r3, [r0, #0]
     e3e:	681b      	ldr	r3, [r3, #0]
     e40:	4798      	blx	r3
     e42:	2300      	movs	r3, #0
     e44:	702b      	strb	r3, [r5, #0]
     e46:	6823      	ldr	r3, [r4, #0]
     e48:	685b      	ldr	r3, [r3, #4]
     e4a:	6023      	str	r3, [r4, #0]
     e4c:	bd38      	pop	{r3, r4, r5, pc}
     e4e:	bf00      	nop
     e50:	2008402c 	.word	0x2008402c
     e54:	20084028 	.word	0x20084028
     e58:	20084024 	.word	0x20084024

00000e5c <_ZN5hwlib13port_out_fromERNS_7pin_outES1_S1_S1_S1_S1_S1_S1_S1_S1_S1_S1_S1_S1_S1_S1_>:
     e5c:	b510      	push	{r4, lr}
     e5e:	6103      	str	r3, [r0, #16]
     e60:	9b02      	ldr	r3, [sp, #8]
     e62:	4c16      	ldr	r4, [pc, #88]	; (ebc <_ZN5hwlib13port_out_fromERNS_7pin_outES1_S1_S1_S1_S1_S1_S1_S1_S1_S1_S1_S1_S1_S1_S1_+0x60>)
     e64:	6143      	str	r3, [r0, #20]
     e66:	9b03      	ldr	r3, [sp, #12]
     e68:	e9c0 1202 	strd	r1, r2, [r0, #8]
     e6c:	6183      	str	r3, [r0, #24]
     e6e:	9b04      	ldr	r3, [sp, #16]
     e70:	4a13      	ldr	r2, [pc, #76]	; (ec0 <_ZN5hwlib13port_out_fromERNS_7pin_outES1_S1_S1_S1_S1_S1_S1_S1_S1_S1_S1_S1_S1_S1_S1_+0x64>)
     e72:	61c3      	str	r3, [r0, #28]
     e74:	9b05      	ldr	r3, [sp, #20]
     e76:	6004      	str	r4, [r0, #0]
     e78:	6203      	str	r3, [r0, #32]
     e7a:	9b06      	ldr	r3, [sp, #24]
     e7c:	6243      	str	r3, [r0, #36]	; 0x24
     e7e:	9b07      	ldr	r3, [sp, #28]
     e80:	6283      	str	r3, [r0, #40]	; 0x28
     e82:	9b08      	ldr	r3, [sp, #32]
     e84:	62c3      	str	r3, [r0, #44]	; 0x2c
     e86:	9b09      	ldr	r3, [sp, #36]	; 0x24
     e88:	6303      	str	r3, [r0, #48]	; 0x30
     e8a:	9b0a      	ldr	r3, [sp, #40]	; 0x28
     e8c:	6343      	str	r3, [r0, #52]	; 0x34
     e8e:	9b0b      	ldr	r3, [sp, #44]	; 0x2c
     e90:	6383      	str	r3, [r0, #56]	; 0x38
     e92:	9b0c      	ldr	r3, [sp, #48]	; 0x30
     e94:	63c3      	str	r3, [r0, #60]	; 0x3c
     e96:	9b0d      	ldr	r3, [sp, #52]	; 0x34
     e98:	6403      	str	r3, [r0, #64]	; 0x40
     e9a:	9b0e      	ldr	r3, [sp, #56]	; 0x38
     e9c:	6443      	str	r3, [r0, #68]	; 0x44
     e9e:	2300      	movs	r3, #0
     ea0:	6043      	str	r3, [r0, #4]
     ea2:	6843      	ldr	r3, [r0, #4]
     ea4:	2b0f      	cmp	r3, #15
     ea6:	d807      	bhi.n	eb8 <_ZN5hwlib13port_out_fromERNS_7pin_outES1_S1_S1_S1_S1_S1_S1_S1_S1_S1_S1_S1_S1_S1_S1_+0x5c>
     ea8:	1c99      	adds	r1, r3, #2
     eaa:	f850 1021 	ldr.w	r1, [r0, r1, lsl #2]
     eae:	4291      	cmp	r1, r2
     eb0:	d002      	beq.n	eb8 <_ZN5hwlib13port_out_fromERNS_7pin_outES1_S1_S1_S1_S1_S1_S1_S1_S1_S1_S1_S1_S1_S1_S1_+0x5c>
     eb2:	3301      	adds	r3, #1
     eb4:	6043      	str	r3, [r0, #4]
     eb6:	e7f4      	b.n	ea2 <_ZN5hwlib13port_out_fromERNS_7pin_outES1_S1_S1_S1_S1_S1_S1_S1_S1_S1_S1_S1_S1_S1_S1_+0x46>
     eb8:	bd10      	pop	{r4, pc}
     eba:	bf00      	nop
     ebc:	00001524 	.word	0x00001524
     ec0:	200840b4 	.word	0x200840b4

00000ec4 <_ZN5hwlib12port_in_fromERNS_6pin_inES1_S1_S1_S1_S1_S1_S1_S1_S1_S1_S1_S1_S1_S1_S1_>:
     ec4:	b510      	push	{r4, lr}
     ec6:	6103      	str	r3, [r0, #16]
     ec8:	9b02      	ldr	r3, [sp, #8]
     eca:	4c16      	ldr	r4, [pc, #88]	; (f24 <_ZN5hwlib12port_in_fromERNS_6pin_inES1_S1_S1_S1_S1_S1_S1_S1_S1_S1_S1_S1_S1_S1_S1_+0x60>)
     ecc:	6143      	str	r3, [r0, #20]
     ece:	9b03      	ldr	r3, [sp, #12]
     ed0:	e9c0 1202 	strd	r1, r2, [r0, #8]
     ed4:	6183      	str	r3, [r0, #24]
     ed6:	9b04      	ldr	r3, [sp, #16]
     ed8:	4a13      	ldr	r2, [pc, #76]	; (f28 <_ZN5hwlib12port_in_fromERNS_6pin_inES1_S1_S1_S1_S1_S1_S1_S1_S1_S1_S1_S1_S1_S1_S1_+0x64>)
     eda:	61c3      	str	r3, [r0, #28]
     edc:	9b05      	ldr	r3, [sp, #20]
     ede:	6004      	str	r4, [r0, #0]
     ee0:	6203      	str	r3, [r0, #32]
     ee2:	9b06      	ldr	r3, [sp, #24]
     ee4:	6243      	str	r3, [r0, #36]	; 0x24
     ee6:	9b07      	ldr	r3, [sp, #28]
     ee8:	6283      	str	r3, [r0, #40]	; 0x28
     eea:	9b08      	ldr	r3, [sp, #32]
     eec:	62c3      	str	r3, [r0, #44]	; 0x2c
     eee:	9b09      	ldr	r3, [sp, #36]	; 0x24
     ef0:	6303      	str	r3, [r0, #48]	; 0x30
     ef2:	9b0a      	ldr	r3, [sp, #40]	; 0x28
     ef4:	6343      	str	r3, [r0, #52]	; 0x34
     ef6:	9b0b      	ldr	r3, [sp, #44]	; 0x2c
     ef8:	6383      	str	r3, [r0, #56]	; 0x38
     efa:	9b0c      	ldr	r3, [sp, #48]	; 0x30
     efc:	63c3      	str	r3, [r0, #60]	; 0x3c
     efe:	9b0d      	ldr	r3, [sp, #52]	; 0x34
     f00:	6403      	str	r3, [r0, #64]	; 0x40
     f02:	9b0e      	ldr	r3, [sp, #56]	; 0x38
     f04:	6443      	str	r3, [r0, #68]	; 0x44
     f06:	2300      	movs	r3, #0
     f08:	6043      	str	r3, [r0, #4]
     f0a:	6843      	ldr	r3, [r0, #4]
     f0c:	2b0f      	cmp	r3, #15
     f0e:	d807      	bhi.n	f20 <_ZN5hwlib12port_in_fromERNS_6pin_inES1_S1_S1_S1_S1_S1_S1_S1_S1_S1_S1_S1_S1_S1_S1_+0x5c>
     f10:	1c99      	adds	r1, r3, #2
     f12:	f850 1021 	ldr.w	r1, [r0, r1, lsl #2]
     f16:	4291      	cmp	r1, r2
     f18:	d002      	beq.n	f20 <_ZN5hwlib12port_in_fromERNS_6pin_inES1_S1_S1_S1_S1_S1_S1_S1_S1_S1_S1_S1_S1_S1_S1_+0x5c>
     f1a:	3301      	adds	r3, #1
     f1c:	6043      	str	r3, [r0, #4]
     f1e:	e7f4      	b.n	f0a <_ZN5hwlib12port_in_fromERNS_6pin_inES1_S1_S1_S1_S1_S1_S1_S1_S1_S1_S1_S1_S1_S1_S1_+0x46>
     f20:	bd10      	pop	{r4, pc}
     f22:	bf00      	nop
     f24:	00001510 	.word	0x00001510
     f28:	200840b0 	.word	0x200840b0

00000f2c <_ZN3due9uart_initEv>:
     f2c:	4b13      	ldr	r3, [pc, #76]	; (f7c <_ZN3due9uart_initEv+0x50>)
     f2e:	b510      	push	{r4, lr}
     f30:	781a      	ldrb	r2, [r3, #0]
     f32:	bb12      	cbnz	r2, f7a <_ZN3due9uart_initEv+0x4e>
     f34:	2201      	movs	r2, #1
     f36:	f44f 6100 	mov.w	r1, #2048	; 0x800
     f3a:	f44f 7480 	mov.w	r4, #256	; 0x100
     f3e:	701a      	strb	r2, [r3, #0]
     f40:	480f      	ldr	r0, [pc, #60]	; (f80 <_ZN3due9uart_initEv+0x54>)
     f42:	4b10      	ldr	r3, [pc, #64]	; (f84 <_ZN3due9uart_initEv+0x58>)
     f44:	6101      	str	r1, [r0, #16]
     f46:	605c      	str	r4, [r3, #4]
     f48:	6f1a      	ldr	r2, [r3, #112]	; 0x70
     f4a:	f422 7280 	bic.w	r2, r2, #256	; 0x100
     f4e:	671a      	str	r2, [r3, #112]	; 0x70
     f50:	f44f 7200 	mov.w	r2, #512	; 0x200
     f54:	605a      	str	r2, [r3, #4]
     f56:	6f1a      	ldr	r2, [r3, #112]	; 0x70
     f58:	f422 7200 	bic.w	r2, r2, #512	; 0x200
     f5c:	671a      	str	r2, [r3, #112]	; 0x70
     f5e:	22ac      	movs	r2, #172	; 0xac
     f60:	4b09      	ldr	r3, [pc, #36]	; (f88 <_ZN3due9uart_initEv+0x5c>)
     f62:	6104      	str	r4, [r0, #16]
     f64:	681b      	ldr	r3, [r3, #0]
     f66:	601a      	str	r2, [r3, #0]
     f68:	f640 0288 	movw	r2, #2184	; 0x888
     f6c:	621a      	str	r2, [r3, #32]
     f6e:	f04f 32ff 	mov.w	r2, #4294967295
     f72:	6059      	str	r1, [r3, #4]
     f74:	60da      	str	r2, [r3, #12]
     f76:	2250      	movs	r2, #80	; 0x50
     f78:	601a      	str	r2, [r3, #0]
     f7a:	bd10      	pop	{r4, pc}
     f7c:	2008402d 	.word	0x2008402d
     f80:	400e0600 	.word	0x400e0600
     f84:	400e0e00 	.word	0x400e0e00
     f88:	200840ac 	.word	0x200840ac

00000f8c <_ZN3due9uart_putcEc>:
     f8c:	b538      	push	{r3, r4, r5, lr}
     f8e:	4604      	mov	r4, r0
     f90:	f7ff ffcc 	bl	f2c <_ZN3due9uart_initEv>
     f94:	4d04      	ldr	r5, [pc, #16]	; (fa8 <_ZN3due9uart_putcEc+0x1c>)
     f96:	682b      	ldr	r3, [r5, #0]
     f98:	695a      	ldr	r2, [r3, #20]
     f9a:	0792      	lsls	r2, r2, #30
     f9c:	d402      	bmi.n	fa4 <_ZN3due9uart_putcEc+0x18>
     f9e:	f7ff ff3f 	bl	e20 <_ZN5hwlib15background_base18do_background_workEv>
     fa2:	e7f8      	b.n	f96 <_ZN3due9uart_putcEc+0xa>
     fa4:	61dc      	str	r4, [r3, #28]
     fa6:	bd38      	pop	{r3, r4, r5, pc}
     fa8:	200840ac 	.word	0x200840ac

00000fac <_ZN5hwlib20cout_using_uart_putc4putcEc>:
     fac:	b508      	push	{r3, lr}
     fae:	4608      	mov	r0, r1
     fb0:	f7ff f92e 	bl	210 <_ZN5hwlib9uart_putcEc>
     fb4:	bd08      	pop	{r3, pc}

00000fb6 <_ZN5hwlib6now_usEv>:
     fb6:	b538      	push	{r3, r4, r5, lr}
     fb8:	f7ff f8ec 	bl	194 <_ZN3due9now_ticksEv>
     fbc:	4605      	mov	r5, r0
     fbe:	460c      	mov	r4, r1
     fc0:	f7ff f8e4 	bl	18c <_ZN3due12ticks_per_usEv>
     fc4:	4602      	mov	r2, r0
     fc6:	460b      	mov	r3, r1
     fc8:	4628      	mov	r0, r5
     fca:	4621      	mov	r1, r4
     fcc:	f000 f830 	bl	1030 <__aeabi_uldivmod>
     fd0:	bd38      	pop	{r3, r4, r5, pc}

00000fd2 <_ZN5hwlib12wait_us_busyEi>:
     fd2:	b570      	push	{r4, r5, r6, lr}
     fd4:	4606      	mov	r6, r0
     fd6:	f7ff ffee 	bl	fb6 <_ZN5hwlib6now_usEv>
     fda:	1984      	adds	r4, r0, r6
     fdc:	eb41 75e6 	adc.w	r5, r1, r6, asr #31
     fe0:	f7ff ffe9 	bl	fb6 <_ZN5hwlib6now_usEv>
     fe4:	42a9      	cmp	r1, r5
     fe6:	bf08      	it	eq
     fe8:	42a0      	cmpeq	r0, r4
     fea:	d3f9      	bcc.n	fe0 <_ZN5hwlib12wait_us_busyEi+0xe>
     fec:	bd70      	pop	{r4, r5, r6, pc}
	...

00000ff0 <__startup>:
     ff0:	2100      	movs	r1, #0
     ff2:	b508      	push	{r3, lr}
     ff4:	4a09      	ldr	r2, [pc, #36]	; (101c <__startup+0x2c>)
     ff6:	4b0a      	ldr	r3, [pc, #40]	; (1020 <__startup+0x30>)
     ff8:	4293      	cmp	r3, r2
     ffa:	d107      	bne.n	100c <__startup+0x1c>
     ffc:	4b09      	ldr	r3, [pc, #36]	; (1024 <__startup+0x34>)
     ffe:	4a0a      	ldr	r2, [pc, #40]	; (1028 <__startup+0x38>)
    1000:	490a      	ldr	r1, [pc, #40]	; (102c <__startup+0x3c>)
    1002:	428b      	cmp	r3, r1
    1004:	d105      	bne.n	1012 <__startup+0x22>
    1006:	f7ff fd53 	bl	ab0 <main>
    100a:	e7fe      	b.n	100a <__startup+0x1a>
    100c:	f843 1b04 	str.w	r1, [r3], #4
    1010:	e7f2      	b.n	ff8 <__startup+0x8>
    1012:	f852 0b04 	ldr.w	r0, [r2], #4
    1016:	f843 0b04 	str.w	r0, [r3], #4
    101a:	e7f2      	b.n	1002 <__startup+0x12>
    101c:	20084030 	.word	0x20084030
    1020:	20084000 	.word	0x20084000
    1024:	20084030 	.word	0x20084030
    1028:	00001548 	.word	0x00001548
    102c:	200840cc 	.word	0x200840cc

00001030 <__aeabi_uldivmod>:
    1030:	b953      	cbnz	r3, 1048 <__aeabi_uldivmod+0x18>
    1032:	b94a      	cbnz	r2, 1048 <__aeabi_uldivmod+0x18>
    1034:	2900      	cmp	r1, #0
    1036:	bf08      	it	eq
    1038:	2800      	cmpeq	r0, #0
    103a:	bf1c      	itt	ne
    103c:	f04f 31ff 	movne.w	r1, #4294967295
    1040:	f04f 30ff 	movne.w	r0, #4294967295
    1044:	f000 b96e 	b.w	1324 <__aeabi_ldiv0>
    1048:	f1ad 0c08 	sub.w	ip, sp, #8
    104c:	e96d ce04 	strd	ip, lr, [sp, #-16]!
    1050:	f000 f806 	bl	1060 <__udivmoddi4>
    1054:	f8dd e004 	ldr.w	lr, [sp, #4]
    1058:	e9dd 2302 	ldrd	r2, r3, [sp, #8]
    105c:	b004      	add	sp, #16
    105e:	4770      	bx	lr

00001060 <__udivmoddi4>:
    1060:	e92d 47f0 	stmdb	sp!, {r4, r5, r6, r7, r8, r9, sl, lr}
    1064:	9e08      	ldr	r6, [sp, #32]
    1066:	460d      	mov	r5, r1
    1068:	4604      	mov	r4, r0
    106a:	468e      	mov	lr, r1
    106c:	2b00      	cmp	r3, #0
    106e:	f040 8083 	bne.w	1178 <__udivmoddi4+0x118>
    1072:	428a      	cmp	r2, r1
    1074:	4617      	mov	r7, r2
    1076:	d947      	bls.n	1108 <__udivmoddi4+0xa8>
    1078:	fab2 f382 	clz	r3, r2
    107c:	b14b      	cbz	r3, 1092 <__udivmoddi4+0x32>
    107e:	f1c3 0120 	rsb	r1, r3, #32
    1082:	fa05 fe03 	lsl.w	lr, r5, r3
    1086:	fa20 f101 	lsr.w	r1, r0, r1
    108a:	409f      	lsls	r7, r3
    108c:	ea41 0e0e 	orr.w	lr, r1, lr
    1090:	409c      	lsls	r4, r3
    1092:	ea4f 4817 	mov.w	r8, r7, lsr #16
    1096:	fbbe fcf8 	udiv	ip, lr, r8
    109a:	fa1f f987 	uxth.w	r9, r7
    109e:	fb08 e21c 	mls	r2, r8, ip, lr
    10a2:	fb0c f009 	mul.w	r0, ip, r9
    10a6:	0c21      	lsrs	r1, r4, #16
    10a8:	ea41 4202 	orr.w	r2, r1, r2, lsl #16
    10ac:	4290      	cmp	r0, r2
    10ae:	d90a      	bls.n	10c6 <__udivmoddi4+0x66>
    10b0:	18ba      	adds	r2, r7, r2
    10b2:	f10c 31ff 	add.w	r1, ip, #4294967295
    10b6:	f080 8118 	bcs.w	12ea <__udivmoddi4+0x28a>
    10ba:	4290      	cmp	r0, r2
    10bc:	f240 8115 	bls.w	12ea <__udivmoddi4+0x28a>
    10c0:	f1ac 0c02 	sub.w	ip, ip, #2
    10c4:	443a      	add	r2, r7
    10c6:	1a12      	subs	r2, r2, r0
    10c8:	fbb2 f0f8 	udiv	r0, r2, r8
    10cc:	fb08 2210 	mls	r2, r8, r0, r2
    10d0:	fb00 f109 	mul.w	r1, r0, r9
    10d4:	b2a4      	uxth	r4, r4
    10d6:	ea44 4402 	orr.w	r4, r4, r2, lsl #16
    10da:	42a1      	cmp	r1, r4
    10dc:	d909      	bls.n	10f2 <__udivmoddi4+0x92>
    10de:	193c      	adds	r4, r7, r4
    10e0:	f100 32ff 	add.w	r2, r0, #4294967295
    10e4:	f080 8103 	bcs.w	12ee <__udivmoddi4+0x28e>
    10e8:	42a1      	cmp	r1, r4
    10ea:	f240 8100 	bls.w	12ee <__udivmoddi4+0x28e>
    10ee:	3802      	subs	r0, #2
    10f0:	443c      	add	r4, r7
    10f2:	1a64      	subs	r4, r4, r1
    10f4:	2100      	movs	r1, #0
    10f6:	ea40 400c 	orr.w	r0, r0, ip, lsl #16
    10fa:	b11e      	cbz	r6, 1104 <__udivmoddi4+0xa4>
    10fc:	2200      	movs	r2, #0
    10fe:	40dc      	lsrs	r4, r3
    1100:	e9c6 4200 	strd	r4, r2, [r6]
    1104:	e8bd 87f0 	ldmia.w	sp!, {r4, r5, r6, r7, r8, r9, sl, pc}
    1108:	b902      	cbnz	r2, 110c <__udivmoddi4+0xac>
    110a:	deff      	udf	#255	; 0xff
    110c:	fab2 f382 	clz	r3, r2
    1110:	2b00      	cmp	r3, #0
    1112:	d14f      	bne.n	11b4 <__udivmoddi4+0x154>
    1114:	1a8d      	subs	r5, r1, r2
    1116:	2101      	movs	r1, #1
    1118:	ea4f 4e12 	mov.w	lr, r2, lsr #16
    111c:	fa1f f882 	uxth.w	r8, r2
    1120:	fbb5 fcfe 	udiv	ip, r5, lr
    1124:	fb0e 551c 	mls	r5, lr, ip, r5
    1128:	fb08 f00c 	mul.w	r0, r8, ip
    112c:	0c22      	lsrs	r2, r4, #16
    112e:	ea42 4505 	orr.w	r5, r2, r5, lsl #16
    1132:	42a8      	cmp	r0, r5
    1134:	d907      	bls.n	1146 <__udivmoddi4+0xe6>
    1136:	197d      	adds	r5, r7, r5
    1138:	f10c 32ff 	add.w	r2, ip, #4294967295
    113c:	d202      	bcs.n	1144 <__udivmoddi4+0xe4>
    113e:	42a8      	cmp	r0, r5
    1140:	f200 80e9 	bhi.w	1316 <__udivmoddi4+0x2b6>
    1144:	4694      	mov	ip, r2
    1146:	1a2d      	subs	r5, r5, r0
    1148:	fbb5 f0fe 	udiv	r0, r5, lr
    114c:	fb0e 5510 	mls	r5, lr, r0, r5
    1150:	fb08 f800 	mul.w	r8, r8, r0
    1154:	b2a4      	uxth	r4, r4
    1156:	ea44 4405 	orr.w	r4, r4, r5, lsl #16
    115a:	45a0      	cmp	r8, r4
    115c:	d907      	bls.n	116e <__udivmoddi4+0x10e>
    115e:	193c      	adds	r4, r7, r4
    1160:	f100 32ff 	add.w	r2, r0, #4294967295
    1164:	d202      	bcs.n	116c <__udivmoddi4+0x10c>
    1166:	45a0      	cmp	r8, r4
    1168:	f200 80d9 	bhi.w	131e <__udivmoddi4+0x2be>
    116c:	4610      	mov	r0, r2
    116e:	eba4 0408 	sub.w	r4, r4, r8
    1172:	ea40 400c 	orr.w	r0, r0, ip, lsl #16
    1176:	e7c0      	b.n	10fa <__udivmoddi4+0x9a>
    1178:	428b      	cmp	r3, r1
    117a:	d908      	bls.n	118e <__udivmoddi4+0x12e>
    117c:	2e00      	cmp	r6, #0
    117e:	f000 80b1 	beq.w	12e4 <__udivmoddi4+0x284>
    1182:	2100      	movs	r1, #0
    1184:	e9c6 0500 	strd	r0, r5, [r6]
    1188:	4608      	mov	r0, r1
    118a:	e8bd 87f0 	ldmia.w	sp!, {r4, r5, r6, r7, r8, r9, sl, pc}
    118e:	fab3 f183 	clz	r1, r3
    1192:	2900      	cmp	r1, #0
    1194:	d14b      	bne.n	122e <__udivmoddi4+0x1ce>
    1196:	42ab      	cmp	r3, r5
    1198:	d302      	bcc.n	11a0 <__udivmoddi4+0x140>
    119a:	4282      	cmp	r2, r0
    119c:	f200 80b9 	bhi.w	1312 <__udivmoddi4+0x2b2>
    11a0:	1a84      	subs	r4, r0, r2
    11a2:	eb65 0303 	sbc.w	r3, r5, r3
    11a6:	2001      	movs	r0, #1
    11a8:	469e      	mov	lr, r3
    11aa:	2e00      	cmp	r6, #0
    11ac:	d0aa      	beq.n	1104 <__udivmoddi4+0xa4>
    11ae:	e9c6 4e00 	strd	r4, lr, [r6]
    11b2:	e7a7      	b.n	1104 <__udivmoddi4+0xa4>
    11b4:	409f      	lsls	r7, r3
    11b6:	f1c3 0220 	rsb	r2, r3, #32
    11ba:	40d1      	lsrs	r1, r2
    11bc:	ea4f 4e17 	mov.w	lr, r7, lsr #16
    11c0:	fbb1 f0fe 	udiv	r0, r1, lr
    11c4:	fa1f f887 	uxth.w	r8, r7
    11c8:	fb0e 1110 	mls	r1, lr, r0, r1
    11cc:	fa24 f202 	lsr.w	r2, r4, r2
    11d0:	409d      	lsls	r5, r3
    11d2:	fb00 fc08 	mul.w	ip, r0, r8
    11d6:	432a      	orrs	r2, r5
    11d8:	0c15      	lsrs	r5, r2, #16
    11da:	ea45 4501 	orr.w	r5, r5, r1, lsl #16
    11de:	45ac      	cmp	ip, r5
    11e0:	fa04 f403 	lsl.w	r4, r4, r3
    11e4:	d909      	bls.n	11fa <__udivmoddi4+0x19a>
    11e6:	197d      	adds	r5, r7, r5
    11e8:	f100 31ff 	add.w	r1, r0, #4294967295
    11ec:	f080 808f 	bcs.w	130e <__udivmoddi4+0x2ae>
    11f0:	45ac      	cmp	ip, r5
    11f2:	f240 808c 	bls.w	130e <__udivmoddi4+0x2ae>
    11f6:	3802      	subs	r0, #2
    11f8:	443d      	add	r5, r7
    11fa:	eba5 050c 	sub.w	r5, r5, ip
    11fe:	fbb5 f1fe 	udiv	r1, r5, lr
    1202:	fb0e 5c11 	mls	ip, lr, r1, r5
    1206:	fb01 f908 	mul.w	r9, r1, r8
    120a:	b295      	uxth	r5, r2
    120c:	ea45 450c 	orr.w	r5, r5, ip, lsl #16
    1210:	45a9      	cmp	r9, r5
    1212:	d907      	bls.n	1224 <__udivmoddi4+0x1c4>
    1214:	197d      	adds	r5, r7, r5
    1216:	f101 32ff 	add.w	r2, r1, #4294967295
    121a:	d274      	bcs.n	1306 <__udivmoddi4+0x2a6>
    121c:	45a9      	cmp	r9, r5
    121e:	d972      	bls.n	1306 <__udivmoddi4+0x2a6>
    1220:	3902      	subs	r1, #2
    1222:	443d      	add	r5, r7
    1224:	eba5 0509 	sub.w	r5, r5, r9
    1228:	ea41 4100 	orr.w	r1, r1, r0, lsl #16
    122c:	e778      	b.n	1120 <__udivmoddi4+0xc0>
    122e:	f1c1 0720 	rsb	r7, r1, #32
    1232:	408b      	lsls	r3, r1
    1234:	fa22 fc07 	lsr.w	ip, r2, r7
    1238:	ea4c 0c03 	orr.w	ip, ip, r3
    123c:	fa25 f407 	lsr.w	r4, r5, r7
    1240:	ea4f 4e1c 	mov.w	lr, ip, lsr #16
    1244:	fbb4 f9fe 	udiv	r9, r4, lr
    1248:	fa1f f88c 	uxth.w	r8, ip
    124c:	fb0e 4419 	mls	r4, lr, r9, r4
    1250:	fa20 f307 	lsr.w	r3, r0, r7
    1254:	fb09 fa08 	mul.w	sl, r9, r8
    1258:	408d      	lsls	r5, r1
    125a:	431d      	orrs	r5, r3
    125c:	0c2b      	lsrs	r3, r5, #16
    125e:	ea43 4404 	orr.w	r4, r3, r4, lsl #16
    1262:	45a2      	cmp	sl, r4
    1264:	fa02 f201 	lsl.w	r2, r2, r1
    1268:	fa00 f301 	lsl.w	r3, r0, r1
    126c:	d909      	bls.n	1282 <__udivmoddi4+0x222>
    126e:	eb1c 0404 	adds.w	r4, ip, r4
    1272:	f109 30ff 	add.w	r0, r9, #4294967295
    1276:	d248      	bcs.n	130a <__udivmoddi4+0x2aa>
    1278:	45a2      	cmp	sl, r4
    127a:	d946      	bls.n	130a <__udivmoddi4+0x2aa>
    127c:	f1a9 0902 	sub.w	r9, r9, #2
    1280:	4464      	add	r4, ip
    1282:	eba4 040a 	sub.w	r4, r4, sl
    1286:	fbb4 f0fe 	udiv	r0, r4, lr
    128a:	fb0e 4410 	mls	r4, lr, r0, r4
    128e:	fb00 fa08 	mul.w	sl, r0, r8
    1292:	b2ad      	uxth	r5, r5
    1294:	ea45 4404 	orr.w	r4, r5, r4, lsl #16
    1298:	45a2      	cmp	sl, r4
    129a:	d908      	bls.n	12ae <__udivmoddi4+0x24e>
    129c:	eb1c 0404 	adds.w	r4, ip, r4
    12a0:	f100 35ff 	add.w	r5, r0, #4294967295
    12a4:	d22d      	bcs.n	1302 <__udivmoddi4+0x2a2>
    12a6:	45a2      	cmp	sl, r4
    12a8:	d92b      	bls.n	1302 <__udivmoddi4+0x2a2>
    12aa:	3802      	subs	r0, #2
    12ac:	4464      	add	r4, ip
    12ae:	ea40 4009 	orr.w	r0, r0, r9, lsl #16
    12b2:	fba0 8902 	umull	r8, r9, r0, r2
    12b6:	eba4 040a 	sub.w	r4, r4, sl
    12ba:	454c      	cmp	r4, r9
    12bc:	46c6      	mov	lr, r8
    12be:	464d      	mov	r5, r9
    12c0:	d319      	bcc.n	12f6 <__udivmoddi4+0x296>
    12c2:	d016      	beq.n	12f2 <__udivmoddi4+0x292>
    12c4:	b15e      	cbz	r6, 12de <__udivmoddi4+0x27e>
    12c6:	ebb3 020e 	subs.w	r2, r3, lr
    12ca:	eb64 0405 	sbc.w	r4, r4, r5
    12ce:	fa04 f707 	lsl.w	r7, r4, r7
    12d2:	fa22 f301 	lsr.w	r3, r2, r1
    12d6:	431f      	orrs	r7, r3
    12d8:	40cc      	lsrs	r4, r1
    12da:	e9c6 7400 	strd	r7, r4, [r6]
    12de:	2100      	movs	r1, #0
    12e0:	e8bd 87f0 	ldmia.w	sp!, {r4, r5, r6, r7, r8, r9, sl, pc}
    12e4:	4631      	mov	r1, r6
    12e6:	4630      	mov	r0, r6
    12e8:	e70c      	b.n	1104 <__udivmoddi4+0xa4>
    12ea:	468c      	mov	ip, r1
    12ec:	e6eb      	b.n	10c6 <__udivmoddi4+0x66>
    12ee:	4610      	mov	r0, r2
    12f0:	e6ff      	b.n	10f2 <__udivmoddi4+0x92>
    12f2:	4543      	cmp	r3, r8
    12f4:	d2e6      	bcs.n	12c4 <__udivmoddi4+0x264>
    12f6:	ebb8 0e02 	subs.w	lr, r8, r2
    12fa:	eb69 050c 	sbc.w	r5, r9, ip
    12fe:	3801      	subs	r0, #1
    1300:	e7e0      	b.n	12c4 <__udivmoddi4+0x264>
    1302:	4628      	mov	r0, r5
    1304:	e7d3      	b.n	12ae <__udivmoddi4+0x24e>
    1306:	4611      	mov	r1, r2
    1308:	e78c      	b.n	1224 <__udivmoddi4+0x1c4>
    130a:	4681      	mov	r9, r0
    130c:	e7b9      	b.n	1282 <__udivmoddi4+0x222>
    130e:	4608      	mov	r0, r1
    1310:	e773      	b.n	11fa <__udivmoddi4+0x19a>
    1312:	4608      	mov	r0, r1
    1314:	e749      	b.n	11aa <__udivmoddi4+0x14a>
    1316:	f1ac 0c02 	sub.w	ip, ip, #2
    131a:	443d      	add	r5, r7
    131c:	e713      	b.n	1146 <__udivmoddi4+0xe6>
    131e:	3802      	subs	r0, #2
    1320:	443c      	add	r4, r7
    1322:	e724      	b.n	116e <__udivmoddi4+0x10e>

00001324 <__aeabi_ldiv0>:
    1324:	4770      	bx	lr
    1326:	bf00      	nop
    1328:	2e2f2e2e 	.word	0x2e2f2e2e
    132c:	77682f2e 	.word	0x77682f2e
    1330:	2f62696c 	.word	0x2f62696c
    1334:	7262696c 	.word	0x7262696c
    1338:	2f797261 	.word	0x2f797261
    133c:	67726174 	.word	0x67726174
    1340:	2f737465 	.word	0x2f737465
    1344:	696c7768 	.word	0x696c7768
    1348:	72612d62 	.word	0x72612d62
    134c:	6e697564 	.word	0x6e697564
    1350:	75642d6f 	.word	0x75642d6f
    1354:	70682e65 	.word	0x70682e65
    1358:	0070      	.short	0x0070

0000135a <_ZZN3due8pin_infoENS_4pinsEE14pin_info_array>:
    135a:	0800 0900 1901 1c02 1a02 1902 1802 1702     ................
    136a:	1602 1502 1d02 0703 0803 1b01 0403 0503     ................
    137a:	0d00 0c00 0b00 0a00 0c01 0d01 1a01 0e00     ................
    138a:	0f00 0003 0103 0203 0303 0603 0903 0700     ................
    139a:	0a03 0102 0202 0302 0402 0502 0602 0702     ................
    13aa:	0802 0902 1300 1400 1302 1202 1102 1002     ................
    13ba:	0f02 0e02 0d02 0c02 1501 0e01 1000 1800     ................
    13ca:	1700 1600 0600 0400 0300 0200 1101 1201     ................
    13da:	1301 1401 0f01 1001 0100 0000 0d01 0c01     ................
    13ea:	1200 1100 0900 0800 1b01 1b00 1900 1a00     ................
    13fa:	1d02 1a02 6167 656d 6f00 6576 0072 6572     ....game.over.re
    140a:	6361 6974 6e6f 7400 6e69 0065 6e69 7520     action.tine.in u
    141a:	0073 7570 6873 7400 6568 6700 6572 6e65     s.push.the.green
    142a:	6200 7475 6f74 006e 6f74 7300 6174 7472     .button.to.start
    143a:	6700 6e61 7365 7000 616c 6579 0064 6574     .ganes.played.te
    144a:	7473 7400 7365 3374 7400 7365 3474 0000     st.test3.test4..
	...

0000145c <_ZTVN3due6pin_inE>:
	...
    1464:	0439 0000 0449 0000                         9...I...

0000146c <_ZTVN3due7pin_outE>:
	...
    1474:	044b 0000 0459 0000 3e0a 203e 6146 6174     K...Y....>> Fata
    1484:	206c 7265 6f72 3a72 0020 6f63 706d 7261     l error: .compar
    1494:	6e69 2067 6e69 6f63 706d 7461 6269 656c     ing incompatible
    14a4:	7720 6961 6174 6c62 7365 0a00 7400 7361      waitables...tas
    14b4:	206b 6f6e 2074 6c62 636f 656b 2064 7962     k not blocked by
    14c4:	6920 7374 6c65 0066 7572 6e6e 6e69 2067      itself.running 
    14d4:	6174 6b73 6920 2073 6f6e 2074 4552 4441     task is not READ
    14e4:	2159 003f                                   Y!?.

000014e8 <_ZTVN5hwlib14pin_in_dummy_tE>:
	...
    14f0:	0d77 0000 0d7b 0000                         w...{...

000014f8 <_ZTVN5hwlib15pin_out_dummy_tE>:
	...
    1500:	0d7d 0000 0d7f 0000                         }.......

00001508 <_ZTVN5hwlib19port_in_from_pins_tE>:
	...
    1510:	0d81 0000 0d85 0000 0daf 0000               ............

0000151c <_ZTVN5hwlib20port_out_from_pins_tE>:
	...
    1524:	0dcf 0000 0dd3 0000 0dfb 0000               ............

00001530 <_ZTVN5hwlib20cout_using_uart_putcE>:
	...
    1538:	0fad 0000 0e1b 0000                         ........
